
GccApplication1.elf:     file format elf32-avr

Sections:
Idx Name          Size      VMA       LMA       File off  Algn
  0 .data         0000007e  00800100  00001ed8  00001f6c  2**0
                  CONTENTS, ALLOC, LOAD, DATA
  1 .text         00001ed8  00000000  00000000  00000094  2**1
                  CONTENTS, ALLOC, LOAD, READONLY, CODE
  2 .bss          00000476  0080017e  0080017e  00001fea  2**0
                  ALLOC
  3 .comment      00000030  00000000  00000000  00001fea  2**0
                  CONTENTS, READONLY
  4 .note.gnu.avr.deviceinfo 00000040  00000000  00000000  0000201c  2**2
                  CONTENTS, READONLY
  5 .debug_info   000005f4  00000000  00000000  0000205c  2**0
                  CONTENTS, READONLY, DEBUGGING
  6 .debug_abbrev 000005a2  00000000  00000000  00002650  2**0
                  CONTENTS, READONLY, DEBUGGING
  7 .debug_line   00000134  00000000  00000000  00002bf2  2**0
                  CONTENTS, READONLY, DEBUGGING
  8 .debug_str    00000208  00000000  00000000  00002d26  2**0
                  CONTENTS, READONLY, DEBUGGING

Disassembly of section .text:

00000000 <__vectors>:
       0:	0c 94 ec 04 	jmp	0x9d8	; 0x9d8 <__ctors_end>
       4:	0c 94 09 05 	jmp	0xa12	; 0xa12 <__bad_interrupt>
       8:	0c 94 09 05 	jmp	0xa12	; 0xa12 <__bad_interrupt>
       c:	0c 94 09 05 	jmp	0xa12	; 0xa12 <__bad_interrupt>
      10:	0c 94 09 05 	jmp	0xa12	; 0xa12 <__bad_interrupt>
      14:	0c 94 09 05 	jmp	0xa12	; 0xa12 <__bad_interrupt>
      18:	0c 94 09 05 	jmp	0xa12	; 0xa12 <__bad_interrupt>
      1c:	0c 94 09 05 	jmp	0xa12	; 0xa12 <__bad_interrupt>
      20:	0c 94 09 05 	jmp	0xa12	; 0xa12 <__bad_interrupt>
      24:	0c 94 09 05 	jmp	0xa12	; 0xa12 <__bad_interrupt>
      28:	0c 94 09 05 	jmp	0xa12	; 0xa12 <__bad_interrupt>
      2c:	0c 94 09 05 	jmp	0xa12	; 0xa12 <__bad_interrupt>
      30:	0c 94 09 05 	jmp	0xa12	; 0xa12 <__bad_interrupt>
      34:	0c 94 09 05 	jmp	0xa12	; 0xa12 <__bad_interrupt>
      38:	0c 94 09 05 	jmp	0xa12	; 0xa12 <__bad_interrupt>
      3c:	0c 94 09 05 	jmp	0xa12	; 0xa12 <__bad_interrupt>
      40:	0c 94 09 05 	jmp	0xa12	; 0xa12 <__bad_interrupt>
      44:	0c 94 09 05 	jmp	0xa12	; 0xa12 <__bad_interrupt>
      48:	0c 94 09 05 	jmp	0xa12	; 0xa12 <__bad_interrupt>
      4c:	0c 94 09 05 	jmp	0xa12	; 0xa12 <__bad_interrupt>
      50:	0c 94 09 05 	jmp	0xa12	; 0xa12 <__bad_interrupt>
      54:	0c 94 09 05 	jmp	0xa12	; 0xa12 <__bad_interrupt>
      58:	0c 94 09 05 	jmp	0xa12	; 0xa12 <__bad_interrupt>
      5c:	0c 94 09 05 	jmp	0xa12	; 0xa12 <__bad_interrupt>
      60:	0c 94 09 05 	jmp	0xa12	; 0xa12 <__bad_interrupt>
      64:	0c 94 09 05 	jmp	0xa12	; 0xa12 <__bad_interrupt>

00000068 <__trampolines_end>:
      68:	bf 00       	.word	0x00bf	; ????
      6a:	03 03       	mulsu	r16, r19
      6c:	03 04       	cpc	r0, r3
      6e:	03 05       	cpc	r16, r3
      70:	04 07       	cpc	r16, r20
      72:	0d 00       	.word	0x000d	; ????
      74:	fe 09       	sbc	r31, r14
      76:	fe 0b       	sbc	r31, r30
      78:	ff 01       	movw	r30, r30
      7a:	7f 02       	muls	r23, r31
      7c:	fb 09       	sbc	r31, r11
      7e:	53 20       	and	r5, r3
      80:	05 00       	.word	0x0005	; ????
      82:	ee 07       	cpc	r30, r30
      84:	21 07       	cpc	r18, r17
      86:	d2 c3       	rjmp	.+1956   	; 0x82c <__DATA_REGION_LENGTH__+0x2c>
      88:	c7 13       	cpse	r28, r23
      8a:	01 22       	and	r0, r17
      8c:	08 9d       	mul	r16, r8
      8e:	de 87       	std	Y+14, r29	; 0x0e
      90:	84 45       	sbci	r24, 0x54	; 84
      92:	00 23       	and	r16, r16
      94:	0f ce       	rjmp	.-994    	; 0xfffffcb4 <__eeprom_end+0xff7efcb4>
      96:	c2 4f       	sbci	r28, 0xF2	; 242
      98:	28 cb       	rjmp	.-2480   	; 0xfffff6ea <__eeprom_end+0xff7ef6ea>
      9a:	a1 12       	cpse	r10, r17
      9c:	8a 1c       	adc	r8, r10
      9e:	2a a1       	ldd	r18, Y+34	; 0x22
      a0:	2c 00       	.word	0x002c	; ????
      a2:	24 12       	cpse	r2, r20
      a4:	e6 ba       	out	0x16, r14	; 22
      a6:	5f 34       	cpi	r21, 0x4F	; 79
      a8:	76 89       	ldd	r23, Z+22	; 0x16
      aa:	4c 62       	ori	r20, 0x2C	; 44
      ac:	c3 59       	subi	r28, 0x93	; 147
      ae:	64 12       	cpse	r6, r20
      b0:	b9 45       	sbci	r27, 0x59	; 89
      b2:	63 00       	.word	0x0063	; ????
      b4:	25 10       	cpse	r2, r5
      b6:	ce c2       	rjmp	.+1436   	; 0x654 <__EEPROM_REGION_LENGTH__+0x254>
      b8:	4f 8c       	ldd	r4, Y+31	; 0x1f
      ba:	32 49       	sbci	r19, 0x92	; 146
      bc:	a1 49       	sbci	r26, 0x91	; 145
      be:	62 94       	swap	r6
      c0:	94 09       	sbc	r25, r4
      c2:	2d 02       	muls	r18, r29
      c4:	26 10       	cpse	r2, r6
      c6:	ce c2       	rjmp	.+1436   	; 0x664 <__EEPROM_REGION_LENGTH__+0x264>
      c8:	97 4c       	sbci	r25, 0xC7	; 199
      ca:	12 92       	st	-Z, r1
      cc:	c4 64       	ori	r28, 0x44	; 68
      ce:	93 49       	sbci	r25, 0x93	; 147
      d0:	64 a2       	std	Z+36, r6	; 0x24
      d2:	49 22       	and	r4, r25
      d4:	27 08       	sbc	r2, r7
      d6:	23 db       	rcall	.-2490   	; 0xfffff71e <__eeprom_end+0xff7ef71e>
      d8:	8f 84       	ldd	r8, Y+15	; 0x0f
      da:	12 02       	muls	r17, r18
      dc:	28 0c       	add	r2, r8
      de:	64 bf       	out	0x34, r22	; 52
      e0:	97 44       	sbci	r25, 0x47	; 71
      e2:	24 11       	cpse	r18, r4
      e4:	e9 4d       	sbci	r30, 0xD9	; 217
      e6:	24 13       	cpse	r18, r20
      e8:	29 0d       	add	r18, r9
      ea:	64 bf       	out	0x34, r22	; 52
      ec:	87 4c       	sbci	r24, 0xC7	; 199
      ee:	24 13       	cpse	r18, r20
      f0:	e9 45       	sbci	r30, 0x59	; 89
      f2:	24 11       	cpse	r18, r4
      f4:	01 2a       	or	r0, r17
      f6:	0e be       	out	0x3e, r0	; 62
      f8:	c6 5f       	subi	r28, 0xF6	; 246
      fa:	48 92       	.word	0x9248	; ????
      fc:	52 12       	cpse	r5, r18
      fe:	55 52       	subi	r21, 0x25	; 37
     100:	44 31       	cpi	r20, 0x14	; 20
     102:	00 2b       	or	r16, r16
     104:	0b b6       	in	r0, 0x3b	; 59
     106:	c6 97       	sbiw	r24, 0x36	; 54
     108:	50 74       	andi	r21, 0x40	; 64
     10a:	28 09       	sbc	r18, r8
     10c:	45 00       	.word	0x0045	; ????
     10e:	2c 08       	sbc	r2, r12
     110:	23 bb       	out	0x13, r18	; 19
     112:	8f 84       	ldd	r8, Y+15	; 0x0f
     114:	12 02       	muls	r17, r18
     116:	2d 07       	cpc	r18, r29
     118:	96 ce       	rjmp	.-724    	; 0xfffffe46 <__eeprom_end+0xff7efe46>
     11a:	c7 a1       	ldd	r28, Z+39	; 0x27
     11c:	00 2e       	mov	r0, r16
     11e:	06 92       	lac	Z, r0
     120:	c3 07       	cpc	r28, r19
     122:	01 2f       	mov	r16, r17
     124:	0e e6       	ldi	r16, 0x6E	; 110
     126:	be a7       	std	Y+46, r27	; 0x2e
     128:	9a 50       	subi	r25, 0x0A	; 10
     12a:	4d 28       	or	r4, r13
     12c:	13 aa       	std	Z+51, r1	; 0x33
     12e:	09 85       	ldd	r16, Y+9	; 0x09
     130:	00 30       	cpi	r16, 0x00	; 0
     132:	0c ce       	rjmp	.-1000   	; 0xfffffd4c <__eeprom_end+0xff7efd4c>
     134:	c2 97       	sbiw	r24, 0x32	; 50
     136:	8c 22       	and	r8, r28
     138:	e2 49       	sbci	r30, 0x92	; 146
     13a:	42 13       	cpse	r20, r18
     13c:	01 31       	cpi	r16, 0x11	; 17
     13e:	0a 4c       	sbci	r16, 0xCA	; 202
     140:	c3 97       	sbiw	r24, 0x33	; 51
     142:	e4 10       	cpse	r14, r4
     144:	11 e9       	ldi	r17, 0x91	; 145
     146:	01 32       	cpi	r16, 0x21	; 33
     148:	0d ce       	rjmp	.-998    	; 0xfffffd64 <__eeprom_end+0xff7efd64>
     14a:	c2 0f       	add	r28, r18
     14c:	45 44       	sbci	r20, 0x45	; 69
     14e:	12 ca       	rjmp	.-3036   	; 0xfffff574 <__eeprom_end+0xff7ef574>
     150:	d4 62       	ori	r29, 0x24	; 36
     152:	07 03       	mulsu	r16, r23
     154:	33 0e       	add	r3, r19
     156:	ce c2       	rjmp	.+1436   	; 0x6f4 <__EEPROM_REGION_LENGTH__+0x2f4>
     158:	0f 45       	sbci	r16, 0x5F	; 95
     15a:	44 12       	cpse	r4, r20
     15c:	8a a6       	std	Y+42, r8	; 0x2a
     15e:	24 92       	xch	Z, r2
     160:	84 02       	muls	r24, r20
     162:	34 0f       	add	r19, r20
     164:	ce c2       	rjmp	.+1436   	; 0x702 <__EEPROM_REGION_LENGTH__+0x302>
     166:	9f 6c       	ori	r25, 0xCF	; 207
     168:	29 22       	and	r2, r25
     16a:	8a 48       	sbci	r24, 0x8A	; 138
     16c:	42 12       	cpse	r4, r18
     16e:	9b 50       	subi	r25, 0x0B	; 11
     170:	02 35       	cpi	r16, 0x52	; 82
     172:	0e ce       	rjmp	.-996    	; 0xfffffd90 <__eeprom_end+0xff7efd90>
     174:	c2 0f       	add	r28, r18
     176:	89 14       	cp	r8, r9
     178:	25 85       	ldd	r18, Z+13	; 0x0d
     17a:	84 24       	eor	r8, r4
     17c:	92 84       	ldd	r9, Z+10	; 0x0a
     17e:	02 36       	cpi	r16, 0x62	; 98
     180:	0e ce       	rjmp	.-996    	; 0xfffffd9e <__eeprom_end+0xff7efd9e>
     182:	c2 d7       	rcall	.+3972   	; 0x1108 <u8g2_DrawGlyph+0x7a>
     184:	48 26       	eor	r4, r24
     186:	14 56       	subi	r17, 0x64	; 100
     188:	44 4c       	sbci	r20, 0xC4	; 196
     18a:	12 0a       	sbc	r1, r18
     18c:	00 37       	cpi	r16, 0x70	; 112
     18e:	0d ce       	rjmp	.-998    	; 0xfffffdaa <__eeprom_end+0xff7efdaa>
     190:	c2 c7       	rjmp	.+3972   	; 0x1116 <u8g2_DrawGlyph+0x88>
     192:	c1 16       	cp	r12, r17
     194:	94 09       	sbc	r25, r4
     196:	65 42       	sbci	r22, 0x25	; 37
     198:	35 00       	.word	0x0035	; ????
     19a:	38 10       	cpse	r3, r8
     19c:	ce c2       	rjmp	.+1436   	; 0x73a <__EEPROM_REGION_LENGTH__+0x33a>
     19e:	0f 45       	sbci	r16, 0x5F	; 95
     1a0:	44 92       	xch	Z, r4
     1a2:	48 42       	sbci	r20, 0x28	; 40
     1a4:	a4 48       	sbci	r26, 0x84	; 132
     1a6:	89 24       	eor	r8, r9
     1a8:	a1 00       	.word	0x00a1	; ????
     1aa:	39 0d       	add	r19, r9
     1ac:	ce c2       	rjmp	.+1436   	; 0x74a <__EEPROM_REGION_LENGTH__+0x34a>
     1ae:	0f 45       	sbci	r16, 0x5F	; 95
     1b0:	c4 24       	eor	r12, r4
     1b2:	29 aa       	std	Y+49, r2	; 0x31
     1b4:	89 46       	sbci	r24, 0x69	; 105
     1b6:	00 3a       	cpi	r16, 0xA0	; 160
     1b8:	07 b2       	in	r0, 0x17	; 23
     1ba:	c3 07       	cpc	r28, r19
     1bc:	91 00       	.word	0x0091	; ????
     1be:	3b 09       	sbc	r19, r11
     1c0:	43 bb       	out	0x13, r20	; 19
     1c2:	8f ba       	out	0x1f, r8	; 31
     1c4:	84 12       	cpse	r8, r20
     1c6:	02 3c       	cpi	r16, 0xC2	; 194
     1c8:	08 ce       	rjmp	.-1008   	; 0xfffffdda <__eeprom_end+0xff7efdda>
     1ca:	c2 a7       	std	Z+42, r28	; 0x2a
     1cc:	4c 57       	subi	r20, 0x7C	; 124
     1ce:	1d 3d       	cpi	r17, 0xDD	; 221
     1d0:	08 ae       	std	Y+56, r0	; 0x38
     1d2:	ca c7       	rjmp	.+3988   	; 0x1168 <u8g2_draw_string+0x14>
     1d4:	a1 7c       	andi	r26, 0xC1	; 193
     1d6:	28 3e       	cpi	r18, 0xE8	; 232
     1d8:	09 ce       	rjmp	.-1006   	; 0xfffffdec <__eeprom_end+0xff7efdec>
     1da:	c2 87       	std	Z+10, r28	; 0x0a
     1dc:	54 37       	cpi	r21, 0x74	; 116
     1de:	1d 01       	movw	r2, r26
     1e0:	3f 0f       	add	r19, r31
     1e2:	d6 c2       	rjmp	.+1452   	; 0x790 <__EEPROM_REGION_LENGTH__+0x390>
     1e4:	0f 45       	sbci	r16, 0x5F	; 95
     1e6:	44 12       	cpse	r4, r20
     1e8:	ca 14       	cp	r12, r10
     1ea:	e5 30       	cpi	r30, 0x05	; 5
     1ec:	a1 08       	sbc	r10, r1
     1ee:	00 40       	sbci	r16, 0x00	; 0
     1f0:	0f ce       	rjmp	.-994    	; 0xfffffe10 <__eeprom_end+0xff7efe10>
     1f2:	c2 d7       	rcall	.+3972   	; 0x1178 <u8g2_draw_string+0x24>
     1f4:	48 42       	sbci	r20, 0x28	; 40
     1f6:	89 48       	sbci	r24, 0x89	; 137
     1f8:	2a 21       	and	r18, r10
     1fa:	89 65       	ori	r24, 0x59	; 89
     1fc:	22 25       	eor	r18, r2
     1fe:	41 0e       	add	r4, r17
     200:	ce c2       	rjmp	.+1436   	; 0x79e <__EEPROM_REGION_LENGTH__+0x39e>
     202:	97 50       	subi	r25, 0x07	; 7
     204:	8d 14       	cp	r8, r13
     206:	11 45       	sbci	r17, 0x51	; 81
     208:	24 b7       	in	r18, 0x34	; 52
     20a:	99 00       	.word	0x0099	; ????
     20c:	42 0d       	add	r20, r2
     20e:	ce c2       	rjmp	.+1436   	; 0x7ac <__EEPROM_REGION_LENGTH__+0x3ac>
     210:	47 45       	sbci	r20, 0x57	; 87
     212:	c4 14       	cp	r12, r4
     214:	a9 88       	ldd	r10, Y+17	; 0x11
     216:	98 2e       	mov	r9, r24
     218:	00 43       	sbci	r16, 0x30	; 48
     21a:	0c ce       	rjmp	.-1000   	; 0xfffffe34 <__eeprom_end+0xff7efe34>
     21c:	c2 d7       	rcall	.+3972   	; 0x11a2 <u8g2_draw_string+0x4e>
     21e:	48 42       	sbci	r20, 0x28	; 40
     220:	d4 55       	subi	r29, 0x54	; 84
     222:	22 9a       	sbi	0x04, 2	; 4
     224:	00 44       	sbci	r16, 0x40	; 64
     226:	0c ce       	rjmp	.-1000   	; 0xfffffe40 <__eeprom_end+0xff7efe40>
     228:	c2 07       	cpc	r28, r18
     22a:	49 14       	cp	r4, r9
     22c:	11 f1       	breq	.+68     	; 0x272 <__trampolines_end+0x20a>
     22e:	29 42       	sbci	r18, 0x29	; 41
     230:	02 45       	sbci	r16, 0x52	; 82
     232:	0e ce       	rjmp	.-996    	; 0xfffffe50 <__eeprom_end+0xff7efe50>
     234:	c2 c7       	rjmp	.+3972   	; 0x11ba <u8g2_draw_string+0x66>
     236:	21 36       	cpi	r18, 0x61	; 97
     238:	14 45       	sbci	r17, 0x54	; 84
     23a:	2a a2       	std	Y+34, r2	; 0x22
     23c:	88 50       	subi	r24, 0x08	; 8
     23e:	76 46       	sbci	r23, 0x66	; 102
     240:	0f ce       	rjmp	.-994    	; 0xfffffe60 <__eeprom_end+0xff7efe60>
     242:	c2 c7       	rjmp	.+3972   	; 0x11c8 <u8g2_draw_string+0x74>
     244:	21 36       	cpi	r18, 0x61	; 97
     246:	14 45       	sbci	r17, 0x54	; 84
     248:	2a a2       	std	Y+34, r2	; 0x22
     24a:	88 50       	subi	r24, 0x08	; 8
     24c:	11 00       	.word	0x0011	; ????
     24e:	47 0d       	add	r20, r7
     250:	ce c2       	rjmp	.+1436   	; 0x7ee <__EEPROM_REGION_LENGTH__+0x3ee>
     252:	d7 48       	sbci	r29, 0x87	; 135
     254:	42 54       	subi	r20, 0x42	; 66
     256:	29 91       	ld	r18, Y+
     258:	24 4a       	sbci	r18, 0xA4	; 164
     25a:	04 48       	sbci	r16, 0x84	; 132
     25c:	0b ce       	rjmp	.-1002   	; 0xfffffe74 <__eeprom_end+0xff7efe74>
     25e:	c2 87       	std	Z+10, r28	; 0x0a
     260:	88 d3       	rcall	.+1808   	; 0x972 <__stack+0x73>
     262:	61 c4       	rjmp	.+2242   	; 0xb26 <u8g2_Setup_ssd1306_128x64_alt0_f+0x4a>
     264:	49 00       	.word	0x0049	; ????
     266:	49 09       	sbc	r20, r9
     268:	ce c2       	rjmp	.+1436   	; 0x806 <__DATA_REGION_LENGTH__+0x6>
     26a:	87 49       	sbci	r24, 0x97	; 151
     26c:	a8 4f       	sbci	r26, 0xF8	; 248
     26e:	06 4a       	sbci	r16, 0xA6	; 166
     270:	0b ce       	rjmp	.-1002   	; 0xfffffe88 <__eeprom_end+0xff7efe88>
     272:	c2 17       	cp	r28, r18
     274:	4d a8       	ldd	r4, Y+53	; 0x35
     276:	8b 4e       	sbci	r24, 0xEB	; 235
     278:	23 00       	.word	0x0023	; ????
     27a:	4b 0e       	add	r4, r27
     27c:	ce c2       	rjmp	.+1436   	; 0x81a <__DATA_REGION_LENGTH__+0x1a>
     27e:	87 88       	ldd	r8, Z+23	; 0x17
     280:	14 91       	lpm	r17, Z
     282:	84 98       	cbi	0x10, 4	; 16
     284:	24 3a       	cpi	r18, 0xA4	; 164
     286:	91 04       	cpc	r9, r1
     288:	4c 08       	sbc	r4, r12
     28a:	ce c2       	rjmp	.+1436   	; 0x828 <__DATA_REGION_LENGTH__+0x28>
     28c:	87 50       	subi	r24, 0x07	; 7
     28e:	bf 1d       	adc	r27, r15
     290:	4d 0f       	add	r20, r29
     292:	ce c2       	rjmp	.+1436   	; 0x830 <__DATA_REGION_LENGTH__+0x30>
     294:	47 70       	andi	r20, 0x07	; 7
     296:	74 38       	cpi	r23, 0x84	; 132
     298:	44 22       	and	r4, r20
     29a:	93 c8       	rjmp	.-3802   	; 0xfffff3c2 <__eeprom_end+0xff7ef3c2>
     29c:	6c 4d       	sbci	r22, 0xDC	; 220
     29e:	00 4e       	sbci	r16, 0xE0	; 224
     2a0:	0c ce       	rjmp	.-1000   	; 0xfffffeba <__eeprom_end+0xff7efeba>
     2a2:	c2 87       	std	Z+10, r28	; 0x0a
     2a4:	8c 44       	sbci	r24, 0x4C	; 76
     2a6:	92 e8       	ldi	r25, 0x82	; 130
     2a8:	c4 36       	cpi	r28, 0x64	; 100
     2aa:	13 4f       	sbci	r17, 0xF3	; 243
     2ac:	0b ce       	rjmp	.-1002   	; 0xfffffec4 <__eeprom_end+0xff7efec4>
     2ae:	c2 0f       	add	r28, r18
     2b0:	45 c4       	rjmp	.+2186   	; 0xb3c <u8g2_font_get_word+0xa>
     2b2:	4f 12       	cpse	r4, r31
     2b4:	0a 00       	.word	0x000a	; ????
     2b6:	50 0b       	sbc	r21, r16
     2b8:	ce c2       	rjmp	.+1436   	; 0x856 <__DATA_REGION_LENGTH__+0x56>
     2ba:	47 45       	sbci	r20, 0x57	; 87
     2bc:	c4 74       	andi	r28, 0x44	; 68
     2be:	11 6a       	ori	r17, 0xA1	; 161
     2c0:	04 51       	subi	r16, 0x14	; 20
     2c2:	0d de       	rcall	.-998    	; 0xfffffede <__eeprom_end+0xff7efede>
     2c4:	ba 0f       	add	r27, r26
     2c6:	45 c4       	rjmp	.+2186   	; 0xb52 <u8g2_font_calc_vref_top+0x2>
     2c8:	53 85       	ldd	r21, Z+11	; 0x0b
     2ca:	32 a1       	ldd	r19, Z+34	; 0x22
     2cc:	4a 03       	fmul	r20, r18
     2ce:	52 0e       	add	r5, r18
     2d0:	ce c2       	rjmp	.+1436   	; 0x86e <__DATA_REGION_LENGTH__+0x6e>
     2d2:	47 45       	sbci	r20, 0x57	; 87
     2d4:	c4 74       	andi	r28, 0x44	; 68
     2d6:	91 84       	ldd	r9, Z+9	; 0x09
     2d8:	24 4a       	sbci	r18, 0xA4	; 164
     2da:	24 01       	movw	r4, r8
     2dc:	53 0e       	add	r5, r19
     2de:	ce c2       	rjmp	.+1436   	; 0x87c <__DATA_REGION_LENGTH__+0x7c>
     2e0:	0f 45       	sbci	r16, 0x5F	; 95
     2e2:	44 1c       	adc	r4, r4
     2e4:	12 87       	std	Z+10, r17	; 0x0a
     2e6:	24 09       	sbc	r18, r4
     2e8:	05 00       	.word	0x0005	; ????
     2ea:	54 0b       	sbc	r21, r20
     2ec:	ce c2       	rjmp	.+1436   	; 0x88a <__DATA_REGION_LENGTH__+0x8a>
     2ee:	c7 45       	sbci	r28, 0x57	; 87
     2f0:	12 12       	cpse	r1, r18
     2f2:	ea 13       	cpse	r30, r26
     2f4:	00 55       	subi	r16, 0x50	; 80
     2f6:	0a ce       	rjmp	.-1004   	; 0xffffff0c <__eeprom_end+0xff7eff0c>
     2f8:	c2 87       	std	Z+10, r28	; 0x0a
     2fa:	88 3f       	cpi	r24, 0xF8	; 248
     2fc:	49 28       	or	r4, r9
     2fe:	00 56       	subi	r16, 0x60	; 96
     300:	10 ce       	rjmp	.-992    	; 0xffffff22 <__eeprom_end+0xff7eff22>
     302:	c2 87       	std	Z+10, r28	; 0x0a
     304:	6c 16       	cp	r6, r28
     306:	d1 12       	cpse	r13, r17
     308:	92 c4       	rjmp	.+2340   	; 0xc2e <u8g2_font_decode_get_unsigned_bits+0xe>
     30a:	66 42       	sbci	r22, 0x26	; 38
     30c:	69 08       	sbc	r6, r9
     30e:	00 57       	subi	r16, 0x70	; 112
     310:	10 ce       	rjmp	.-992    	; 0xffffff32 <__eeprom_end+0xff7eff32>
     312:	c2 87       	std	Z+10, r28	; 0x0a
     314:	6c 4b       	sbci	r22, 0xBC	; 188
     316:	64 12       	cpse	r6, r20
     318:	b9 90       	ld	r11, Y+
     31a:	24 21       	and	r18, r4
     31c:	49 04       	cpc	r4, r9
     31e:	00 58       	subi	r16, 0x80	; 128
     320:	0f ce       	rjmp	.-994    	; 0xffffff40 <__eeprom_end+0xff7eff40>
     322:	c2 87       	std	Z+10, r28	; 0x0a
     324:	88 24       	eor	r8, r8
     326:	91 84       	ldd	r9, Z+9	; 0x09
     328:	86 c2       	rjmp	.+1292   	; 0x836 <__DATA_REGION_LENGTH__+0x36>
     32a:	51 44       	sbci	r21, 0x41	; 65
     32c:	89 24       	eor	r8, r9
     32e:	59 0c       	add	r5, r9
     330:	ce c2       	rjmp	.+1436   	; 0x8ce <__DATA_REGION_LENGTH__+0xce>
     332:	87 88       	ldd	r8, Z+23	; 0x17
     334:	24 91       	lpm	r18, Z
     336:	84 86       	std	Z+12, r8	; 0x0c
     338:	7a 02       	muls	r23, r26
     33a:	5a 0b       	sbc	r21, r26
     33c:	ce c2       	rjmp	.+1436   	; 0x8da <__DATA_REGION_LENGTH__+0xda>
     33e:	c7 4d       	sbci	r28, 0xD7	; 215
     340:	51 a6       	std	Z+41, r5	; 0x29
     342:	28 93       	.word	0x9328	; ????
     344:	1d 5b       	subi	r17, 0xBD	; 189
     346:	08 e5       	ldi	r16, 0x58	; 88
     348:	be c7       	rjmp	.+3964   	; 0x12c6 <u8g2_SetFont+0x6>
     34a:	4d ff       	.word	0xff4d	; ????
     34c:	56 5c       	subi	r21, 0xC6	; 198
     34e:	0e e6       	ldi	r16, 0x6E	; 110
     350:	be 87       	std	Y+14, r27	; 0x0e
     352:	50 2a       	or	r5, r16
     354:	54 15       	cp	r21, r4
     356:	4a 85       	ldd	r20, Y+10	; 0x0a
     358:	aa 42       	sbci	r26, 0x2A	; 42
     35a:	01 5d       	subi	r16, 0xD1	; 209
     35c:	08 e5       	ldi	r16, 0x58	; 88
     35e:	be 47       	sbci	r27, 0x7E	; 126
     360:	4d ff       	.word	0xff4d	; ????
     362:	76 5e       	subi	r23, 0xE6	; 230
     364:	08 9e       	mul	r0, r24
     366:	da 97       	sbiw	r26, 0x3a	; 58
     368:	8c 22       	and	r8, r28
     36a:	12 5f       	subi	r17, 0xF2	; 242
     36c:	07 96       	adiw	r24, 0x07	; 7
     36e:	be c7       	rjmp	.+3964   	; 0x12ec <u8g2_SetFont+0x2c>
     370:	a1 00       	.word	0x00a1	; ????
     372:	60 08       	sbc	r6, r0
     374:	23 db       	rcall	.-2490   	; 0xfffff9bc <__eeprom_end+0xff7ef9bc>
     376:	87 44       	sbci	r24, 0x47	; 71
     378:	24 0a       	sbc	r2, r20
     37a:	61 0c       	add	r6, r1
     37c:	be c2       	rjmp	.+1404   	; 0x8fa <__DATA_REGION_LENGTH__+0xfa>
     37e:	0f 49       	sbci	r16, 0x9F	; 159
     380:	22 94       	swap	r2
     382:	9c 48       	sbci	r25, 0x8C	; 140
     384:	92 02       	muls	r25, r18
     386:	62 0e       	add	r6, r18
     388:	d6 c2       	rjmp	.+1452   	; 0x936 <__stack+0x37>
     38a:	87 50       	subi	r24, 0x07	; 7
     38c:	8b 64       	ori	r24, 0x4B	; 75
     38e:	42 62       	ori	r20, 0x22	; 34
     390:	aa 50       	subi	r26, 0x0A	; 10
     392:	24 00       	.word	0x0024	; ????
     394:	63 0b       	sbc	r22, r19
     396:	be c2       	rjmp	.+1404   	; 0x914 <__stack+0x15>
     398:	0f 45       	sbci	r16, 0x5F	; 95
     39a:	44 d4       	rcall	.+2184   	; 0xc24 <u8g2_font_decode_get_unsigned_bits+0x4>
     39c:	24 a1       	ldd	r18, Z+36	; 0x24
     39e:	00 64       	ori	r16, 0x40	; 64
     3a0:	0c d6       	rcall	.+3096   	; 0xfba <u8g2_font_get_glyph_data+0x4>
     3a2:	c2 a7       	std	Z+42, r28	; 0x2a
     3a4:	16 09       	sbc	r17, r6
     3a6:	a5 c4       	rjmp	.+2378   	; 0xcf2 <u8g2_add_vector_y+0xa>
     3a8:	65 a2       	std	Z+37, r6	; 0x25
     3aa:	00 65       	ori	r16, 0x50	; 80
     3ac:	0d be       	out	0x3d, r0	; 61
     3ae:	c2 0f       	add	r28, r18
     3b0:	45 44       	sbci	r20, 0x45	; 69
     3b2:	3a 0c       	add	r3, r10
     3b4:	45 12       	cpse	r4, r21
     3b6:	0a 00       	.word	0x000a	; ????
     3b8:	66 0d       	add	r22, r6
     3ba:	d6 c2       	rjmp	.+1452   	; 0x968 <__stack+0x69>
     3bc:	df 48       	sbci	r29, 0x8F	; 143
     3be:	12 12       	cpse	r1, r18
     3c0:	8a 4c       	sbci	r24, 0xCA	; 202
     3c2:	42 9d       	mul	r20, r2
     3c4:	00 67       	ori	r16, 0x70	; 112
     3c6:	0c ce       	rjmp	.-1000   	; 0xffffffe0 <__eeprom_end+0xff7effe0>
     3c8:	ba cf       	rjmp	.-140    	; 0x33e <__trampolines_end+0x2d6>
     3ca:	89 cb       	rjmp	.-2286   	; 0xfffffade <__eeprom_end+0xff7efade>
     3cc:	44 91       	lpm	r20, Z
     3ce:	24 a1       	ldd	r18, Z+36	; 0x24
     3d0:	00 68       	ori	r16, 0x80	; 128
     3d2:	0c d6       	rcall	.+3096   	; 0xfec <u8g2_font_get_glyph_data+0x36>
     3d4:	c2 87       	std	Z+10, r28	; 0x0a
     3d6:	50 8b       	std	Z+16, r21	; 0x10
     3d8:	64 42       	sbci	r22, 0x24	; 36
     3da:	e2 49       	sbci	r30, 0x92	; 146
     3dc:	00 69       	ori	r16, 0x90	; 144
     3de:	0b d6       	rcall	.+3094   	; 0xff6 <u8g2_font_get_glyph_data+0x40>
     3e0:	c2 97       	sbiw	r24, 0x32	; 50
     3e2:	50 0e       	add	r5, r16
     3e4:	1a ea       	ldi	r17, 0xAA	; 170
     3e6:	c9 00       	.word	0x00c9	; ????
     3e8:	6a 0c       	add	r6, r10
     3ea:	e5 ba       	out	0x15, r14	; 21
     3ec:	9f 32       	cpi	r25, 0x2F	; 47
     3ee:	4d 6f       	ori	r20, 0xFD	; 253
     3f0:	14 c9       	rjmp	.-3544   	; 0xfffff61a <__eeprom_end+0xff7ef61a>
     3f2:	04 00       	.word	0x0004	; ????
     3f4:	6b 0f       	add	r22, r27
     3f6:	d6 c2       	rjmp	.+1452   	; 0x9a4 <__stack+0xa5>
     3f8:	87 50       	subi	r24, 0x07	; 7
     3fa:	13 29       	or	r17, r3
     3fc:	22 09       	sbc	r18, r2
     3fe:	91 24       	eor	r9, r1
     400:	4a 24       	eor	r4, r10
     402:	01 6c       	ori	r16, 0xC1	; 193
     404:	08 d6       	rcall	.+3088   	; 0x1016 <u8g2_font_get_glyph_data+0x60>
     406:	c2 cf       	rjmp	.-124    	; 0x38c <__trampolines_end+0x324>
     408:	50 7f       	andi	r21, 0xF0	; 240
     40a:	32 6d       	ori	r19, 0xD2	; 210
     40c:	0f be       	out	0x3f, r0	; 63
     40e:	c2 87       	std	Z+10, r28	; 0x0a
     410:	44 72       	andi	r20, 0x24	; 36
     412:	b8 44       	sbci	r27, 0x48	; 72
     414:	26 91       	elpm	r18, Z
     416:	49 64       	ori	r20, 0x49	; 73
     418:	92 00       	.word	0x0092	; ????
     41a:	6e 0a       	sbc	r6, r30
     41c:	be c2       	rjmp	.+1404   	; 0x99a <__stack+0x9b>
     41e:	87 44       	sbci	r24, 0x47	; 71
     420:	32 21       	and	r19, r2
     422:	f1 24       	eor	r15, r1
     424:	6f 0a       	sbc	r6, r31
     426:	be c2       	rjmp	.+1404   	; 0x9a4 <__stack+0xa5>
     428:	0f 45       	sbci	r16, 0x5F	; 95
     42a:	c4 93       	xch	Z, r28
     42c:	84 02       	muls	r24, r20
     42e:	70 0e       	add	r7, r16
     430:	ce ba       	out	0x1e, r12	; 30
     432:	87 44       	sbci	r24, 0x47	; 71
     434:	32 21       	and	r19, r2
     436:	31 55       	subi	r19, 0x51	; 81
     438:	28 8a       	std	Y+16, r2	; 0x10
     43a:	42 00       	.word	0x0042	; ????
     43c:	71 0b       	sbc	r23, r17
     43e:	ce ba       	out	0x1e, r12	; 30
     440:	8f 84       	ldd	r8, Y+15	; 0x0f
     442:	52 e2       	ldi	r21, 0x22	; 34
     444:	32 51       	subi	r19, 0x12	; 18
     446:	54 72       	andi	r21, 0x24	; 36
     448:	0a be       	out	0x3a, r0	; 58
     44a:	c2 c7       	rjmp	.+3972   	; 0x13d0 <u8g2_DrawHVLine+0xc0>
     44c:	44 52       	subi	r20, 0x24	; 36
     44e:	11 ea       	ldi	r17, 0xA1	; 161
     450:	06 73       	andi	r16, 0x36	; 54
     452:	0b be       	out	0x3b, r0	; 59
     454:	c2 0f       	add	r28, r18
     456:	45 44       	sbci	r20, 0x45	; 69
     458:	65 92       	las	Z, r6
     45a:	50 00       	.word	0x0050	; ????
     45c:	74 0c       	add	r7, r4
     45e:	ce c2       	rjmp	.+1436   	; 0x9fc <__do_clear_bss+0x2>
     460:	8f 50       	subi	r24, 0x0F	; 15
     462:	56 12       	cpse	r5, r22
     464:	ea 22       	and	r14, r26
     466:	9a 00       	.word	0x009a	; ????
     468:	75 09       	sbc	r23, r5
     46a:	be c2       	rjmp	.+1404   	; 0x9e8 <__do_copy_data+0x4>
     46c:	87 88       	ldd	r8, Z+23	; 0x17
     46e:	2f 13       	cpse	r18, r31
     470:	05 76       	andi	r16, 0x65	; 101
     472:	0d be       	out	0x3d, r0	; 61
     474:	c2 87       	std	Z+10, r28	; 0x0a
     476:	6c 16       	cp	r6, r28
     478:	d1 12       	cpse	r13, r17
     47a:	9b 49       	sbci	r25, 0x9B	; 155
     47c:	43 00       	.word	0x0043	; ????
     47e:	77 10       	cpse	r7, r7
     480:	be c2       	rjmp	.+1404   	; 0x9fe <__do_clear_bss+0x4>
     482:	87 6c       	ori	r24, 0xC7	; 199
     484:	12 99       	sbic	0x02, 2	; 2
     486:	44 26       	eor	r4, r20
     488:	91 8b       	std	Z+17, r25	; 0x11
     48a:	24 24       	eor	r2, r4
     48c:	89 00       	.word	0x0089	; ????
     48e:	78 0d       	add	r23, r8
     490:	be c2       	rjmp	.+1404   	; 0xa0e <.do_clear_bss_start+0xa>
     492:	87 88       	ldd	r8, Z+23	; 0x17
     494:	14 1a       	sub	r1, r20
     496:	0a 47       	sbci	r16, 0x7A	; 122
     498:	21 92       	st	Z+, r2
     49a:	00 79       	andi	r16, 0x90	; 144
     49c:	11 ce       	rjmp	.-990    	; 0xc0 <__trampolines_end+0x58>
     49e:	ba 87       	std	Y+10, r27	; 0x0a
     4a0:	6c 16       	cp	r6, r28
     4a2:	91 84       	ldd	r9, Z+9	; 0x09
     4a4:	24 b1       	in	r18, 0x04	; 4
     4a6:	99 34       	cpi	r25, 0x49	; 73
     4a8:	14 11       	cpse	r17, r4
     4aa:	cd 00       	.word	0x00cd	; ????
     4ac:	7a 09       	sbc	r23, r10
     4ae:	be c2       	rjmp	.+1404   	; 0xa2c <u8g2_send_buffer+0x16>
     4b0:	c7 69       	ori	r28, 0x97	; 151
     4b2:	a6 6d       	ori	r26, 0xD6	; 214
     4b4:	74 7b       	andi	r23, 0xB4	; 180
     4b6:	0c e6       	ldi	r16, 0x6C	; 108
     4b8:	be df       	rcall	.-132    	; 0x436 <__EEPROM_REGION_LENGTH__+0x36>
     4ba:	48 a8       	ldd	r4, Y+48	; 0x30
     4bc:	69 36       	cpi	r22, 0x69	; 105
     4be:	15 6a       	ori	r17, 0xA5	; 165
     4c0:	1d 7c       	andi	r17, 0xCD	; 205
     4c2:	07 e2       	ldi	r16, 0x27	; 39
     4c4:	bf c7       	rjmp	.+3966   	; 0x1444 <u8g2_DrawHVLine+0x134>
     4c6:	87 01       	movw	r16, r14
     4c8:	7d 0d       	add	r23, r13
     4ca:	e6 be       	out	0x36, r14	; 54
     4cc:	c7 54       	subi	r28, 0x47	; 71
     4ce:	a8 75       	andi	r26, 0x58	; 88
     4d0:	36 12       	cpse	r3, r22
     4d2:	6a 9a       	sbi	0x0d, 2	; 13
     4d4:	01 7e       	andi	r16, 0xE1	; 225
     4d6:	0a a6       	std	Y+42, r0	; 0x2a
     4d8:	da 8f       	std	Y+26, r29	; 0x1a
     4da:	a8 22       	and	r10, r24
     4dc:	29 49       	sbci	r18, 0x99	; 153
     4de:	00 a0       	ldd	r0, Z+32	; 0x20
     4e0:	08 a6       	std	Y+40, r0	; 0x28
     4e2:	be 47       	sbci	r27, 0x7E	; 126
     4e4:	50 78       	andi	r21, 0x80	; 128
     4e6:	30 a1       	ldd	r19, Z+32	; 0x20
     4e8:	07 d2       	rcall	.+1038   	; 0x8f8 <__DATA_REGION_LENGTH__+0xf8>
     4ea:	bb 07       	cpc	r27, r27
     4ec:	e9 70       	andi	r30, 0x09	; 9
     4ee:	a2 10       	cpse	r10, r2
     4f0:	ce be       	out	0x3e, r12	; 62
     4f2:	6f 84       	ldd	r6, Y+15	; 0x0f
     4f4:	22 a2       	std	Z+34, r2	; 0x22
     4f6:	84 24       	eor	r8, r4
     4f8:	a1 d9       	rcall	.-3262   	; 0xfffff83c <__eeprom_end+0xff7ef83c>
     4fa:	44 42       	sbci	r20, 0x24	; 36
     4fc:	0a 02       	muls	r16, r26
     4fe:	a3 0c       	add	r10, r3
     500:	ce c2       	rjmp	.+1436   	; 0xa9e <u8g2_ClearBuffer+0xa>
     502:	d7 48       	sbci	r29, 0x87	; 135
     504:	a2 1b       	sub	r26, r18
     506:	4d 18       	sub	r4, r13
     508:	3b 18       	sub	r3, r11
     50a:	a4 0c       	add	r10, r4
     50c:	b6 c6       	rjmp	.+3436   	; 0x127a <u8g2_UpdateRefHeight+0x6e>
     50e:	87 e8       	ldi	r24, 0x87	; 135
     510:	10 09       	sbc	r17, r0
     512:	65 39       	cpi	r22, 0x95	; 149
     514:	84 04       	cpc	r8, r4
     516:	a5 0e       	add	r10, r21
     518:	ce c2       	rjmp	.+1436   	; 0xab6 <u8g2_ClearBuffer+0x22>
     51a:	87 88       	ldd	r8, Z+23	; 0x17
     51c:	49 42       	sbci	r20, 0x29	; 41
     51e:	31 89       	ldd	r19, Z+17	; 0x11
     520:	4c 42       	sbci	r20, 0x2C	; 44
     522:	11 00       	.word	0x0011	; ????
     524:	a6 08       	sbc	r10, r6
     526:	e2 bf       	out	0x32, r30	; 50
     528:	c7 61       	ori	r28, 0x17	; 23
     52a:	78 18       	sub	r7, r8
     52c:	a7 10       	cpse	r10, r7
     52e:	dd ba       	out	0x1d, r13	; 29
     530:	cf 44       	sbci	r28, 0x4F	; 79
     532:	25 36       	cpi	r18, 0x65	; 101
     534:	8a e8       	ldi	r24, 0x8A	; 138
     536:	12 9a       	sbi	0x02, 2	; 2
     538:	45 54       	subi	r20, 0x45	; 69
     53a:	26 00       	.word	0x0026	; ????
     53c:	a8 07       	cpc	r26, r24
     53e:	95 e2       	ldi	r25, 0x25	; 37
     540:	87 84       	ldd	r8, Z+15	; 0x0f
     542:	22 a9       	ldd	r18, Z+50	; 0x32
     544:	13 57       	subi	r17, 0x73	; 115
     546:	be d7       	rcall	.+3964   	; 0x14c4 <u8g2_IsIntersection+0x52>
     548:	2c 25       	eor	r18, r12
     54a:	24 51       	subi	r18, 0x14	; 20
     54c:	92 c4       	rjmp	.+2340   	; 0xe72 <u8g2_font_decode_glyph+0x66>
     54e:	24 31       	cpi	r18, 0x14	; 20
     550:	89 48       	sbci	r24, 0x89	; 137
     552:	25 2d       	mov	r18, r5
     554:	36 02       	muls	r19, r22
     556:	aa 0b       	sbc	r26, r26
     558:	c5 ca       	rjmp	.-2678   	; 0xfffffae4 <__eeprom_end+0xff7efae4>
     55a:	cf 50       	subi	r28, 0x0F	; 15
     55c:	62 91       	ld	r22, -Z
     55e:	50 0f       	add	r21, r16
     560:	03 ab       	std	Z+51, r16	; 0x33
     562:	09 a6       	std	Y+41, r0	; 0x29
     564:	ca 8f       	std	Y+26, r28	; 0x1a
     566:	84 a2       	std	Z+36, r8	; 0x24
     568:	49 22       	and	r4, r25
     56a:	ac 08       	sbc	r10, r12
     56c:	a6 c6       	rjmp	.+3404   	; 0x12ba <u8g2_SetFontPosTop+0xa>
     56e:	c7 a1       	ldd	r28, Z+39	; 0x27
     570:	a8 00       	.word	0x00a8	; ????
     572:	ad 07       	cpc	r26, r29
     574:	14 cf       	rjmp	.-472    	; 0x39e <__trampolines_end+0x336>
     576:	c7 21       	and	r28, r7
     578:	00 ae       	std	Z+56, r0	; 0x38
     57a:	14 57       	subi	r17, 0x74	; 116
     57c:	be d7       	rcall	.+3964   	; 0x14fa <u8g2_ll_hvline_vertical_top_lsb+0x2c>
     57e:	2c 25       	eor	r18, r12
     580:	22 92       	st	-Z, r2
     582:	4c 24       	eor	r4, r12
     584:	29 4a       	sbci	r18, 0xA9	; 169
     586:	92 89       	ldd	r25, Z+18	; 0x12
     588:	24 b7       	in	r18, 0x34	; 52
     58a:	d8 08       	sbc	r13, r8
     58c:	00 af       	std	Z+56, r16	; 0x38
     58e:	07 96       	adiw	r24, 0x07	; 7
     590:	e2 c7       	rjmp	.+4036   	; 0x1556 <u8g2_ll_hvline_vertical_top_lsb+0x88>
     592:	a1 00       	.word	0x00a1	; ????
     594:	b0 0a       	sbc	r11, r16
     596:	a5 da       	rcall	.-2742   	; 0xfffffae2 <__eeprom_end+0xff7efae2>
     598:	cf 44       	sbci	r28, 0x4F	; 79
     59a:	42 91       	ld	r20, -Z
     59c:	4c 00       	.word	0x004c	; ????
     59e:	b1 0c       	add	r11, r1
     5a0:	c6 c2       	rjmp	.+1420   	; 0xb2e <u8g2_Setup_ssd1306_128x64_alt0_f+0x52>
     5a2:	97 50       	subi	r25, 0x07	; 7
     5a4:	74 28       	or	r7, r4
     5a6:	09 45       	sbci	r16, 0x59	; 89
     5a8:	87 02       	muls	r24, r23
     5aa:	b2 0b       	sbc	r27, r18
     5ac:	bd d2       	rcall	.+1402   	; 0xb28 <u8g2_Setup_ssd1306_128x64_alt0_f+0x4c>
     5ae:	cf 44       	sbci	r28, 0x4F	; 79
     5b0:	4d 24       	eor	r4, r13
     5b2:	8a 1d       	adc	r24, r10
     5b4:	06 b3       	in	r16, 0x16	; 22
     5b6:	0c bd       	out	0x2c, r16	; 44
     5b8:	d2 cf       	rjmp	.-92     	; 0x55e <__EEPROM_REGION_LENGTH__+0x15e>
     5ba:	44 4d       	sbci	r20, 0xD4	; 212
     5bc:	24 a4       	ldd	r2, Z+44	; 0x2c
     5be:	48 26       	eor	r4, r24
     5c0:	00 b4       	in	r0, 0x20	; 32
     5c2:	08 24       	eor	r0, r8
     5c4:	db 97       	sbiw	r26, 0x3b	; 59
     5c6:	44 29       	or	r20, r4
     5c8:	06 b5       	in	r16, 0x26	; 38
     5ca:	0c ce       	rjmp	.-1000   	; 0x1e4 <__trampolines_end+0x17c>
     5cc:	ba 87       	std	Y+10, r27	; 0x0a
     5ce:	88 a7       	std	Y+40, r24	; 0x28
     5d0:	c3 24       	eor	r12, r3
     5d2:	32 14       	cp	r3, r2
     5d4:	02 b6       	in	r0, 0x32	; 50
     5d6:	10 ce       	rjmp	.-992    	; 0x1f8 <__trampolines_end+0x190>
     5d8:	c2 cf       	rjmp	.-124    	; 0x55e <__EEPROM_REGION_LENGTH__+0x15e>
     5da:	a1 12       	cpse	r10, r17
     5dc:	a9 68       	ori	r26, 0x89	; 137
     5de:	8a 88       	ldd	r8, Y+18	; 0x12
     5e0:	22 a2       	std	Z+34, r2	; 0x22
     5e2:	88 28       	or	r8, r8
     5e4:	22 b7       	in	r18, 0x32	; 50
     5e6:	06 92       	lac	Z, r0
     5e8:	cf 07       	cpc	r28, r31
     5ea:	01 b8       	out	0x01, r0	; 1
     5ec:	08 24       	eor	r0, r8
     5ee:	bb 8f       	std	Y+27, r27	; 0x1b
     5f0:	4c 54       	subi	r20, 0x4C	; 76
     5f2:	01 b9       	out	0x01, r16	; 1
     5f4:	07 3b       	cpi	r16, 0xB7	; 183
     5f6:	d3 4f       	sbci	r29, 0xF3	; 243
     5f8:	45 0f       	add	r20, r21
     5fa:	ba 0b       	sbc	r27, r26
     5fc:	c5 ca       	rjmp	.-2678   	; 0xfffffb88 <__eeprom_end+0xff7efb88>
     5fe:	cf 44       	sbci	r28, 0x4F	; 79
     600:	c2 22       	and	r12, r18
     602:	19 1f       	adc	r17, r25
     604:	06 bb       	out	0x16, r16	; 22
     606:	0b a6       	std	Y+43, r0	; 0x2b
     608:	ca 87       	std	Y+10, r28	; 0x0a
     60a:	44 24       	eor	r4, r4
     60c:	51 a1       	ldd	r21, Z+33	; 0x21
     60e:	48 00       	.word	0x0048	; ????
     610:	bc 13       	cpse	r27, r28
     612:	ee ba       	out	0x1e, r14	; 30
     614:	8f 6c       	ori	r24, 0xCF	; 207
     616:	a8 29       	or	r26, r8
     618:	52 19       	sub	r21, r2
     61a:	49 64       	ori	r20, 0x49	; 73
     61c:	a3 88       	ldd	r10, Z+19	; 0x13
     61e:	28 22       	and	r2, r24
     620:	aa 49       	sbci	r26, 0x9A	; 154
     622:	00 bd       	out	0x20, r16	; 32
     624:	11 ee       	ldi	r17, 0xE1	; 225
     626:	ba 8f       	std	Y+26, r27	; 0x1a
     628:	6c a8       	ldd	r6, Y+52	; 0x34
     62a:	45 42       	sbci	r20, 0x25	; 37
     62c:	99 45       	sbci	r25, 0x59	; 89
     62e:	46 12       	cpse	r4, r22
     630:	a1 48       	sbci	r26, 0x81	; 129
     632:	56 29       	or	r21, r6
     634:	be 15       	cp	r27, r14
     636:	ee ba       	out	0x1e, r14	; 30
     638:	cf 48       	sbci	r28, 0x8F	; 143
     63a:	22 93       	st	-Z, r18
     63c:	4a 24       	eor	r4, r10
     63e:	93 ca       	rjmp	.-2778   	; 0xfffffb66 <__eeprom_end+0xff7efb66>
     640:	48 22       	and	r4, r24
     642:	1b 45       	sbci	r17, 0x5B	; 91
     644:	44 11       	cpse	r20, r4
     646:	51 4d       	sbci	r21, 0xD1	; 209
     648:	02 bf       	out	0x32, r16	; 50
     64a:	0f d6       	rcall	.+3102   	; 0x126a <u8g2_UpdateRefHeight+0x5e>
     64c:	ba 97       	sbiw	r30, 0x2a	; 42
     64e:	50 0e       	add	r5, r16
     650:	13 ca       	rjmp	.-3034   	; 0xfffffa78 <__eeprom_end+0xff7efa78>
     652:	14 45       	sbci	r17, 0x54	; 84
     654:	24 09       	sbc	r18, r4
     656:	05 00       	.word	0x0005	; ????
     658:	c0 10       	cpse	r12, r0
     65a:	de c2       	rjmp	.+1468   	; 0xc18 <u8g2_read_font_info+0xb6>
     65c:	c7 54       	subi	r28, 0x47	; 71
     65e:	0e 13       	cpse	r16, r30
     660:	ca 48       	sbci	r28, 0x8A	; 138
     662:	11 51       	subi	r17, 0x11	; 17
     664:	44 72       	andi	r20, 0x24	; 36
     666:	9b 09       	sbc	r25, r11
     668:	c1 10       	cpse	r12, r1
     66a:	de c2       	rjmp	.+1468   	; 0xc28 <u8g2_font_decode_get_unsigned_bits+0x8>
     66c:	df 48       	sbci	r29, 0x8F	; 143
     66e:	0e 13       	cpse	r16, r30
     670:	ca 48       	sbci	r28, 0x8A	; 138
     672:	11 51       	subi	r17, 0x11	; 17
     674:	44 72       	andi	r20, 0x24	; 36
     676:	9b 09       	sbc	r25, r11
     678:	c2 11       	cpse	r28, r2
     67a:	de c2       	rjmp	.+1468   	; 0xc38 <u8g2_font_decode_get_unsigned_bits+0x18>
     67c:	d7 48       	sbci	r29, 0x87	; 135
     67e:	22 87       	std	Z+10, r18	; 0x0a
     680:	08 65       	ori	r16, 0x58	; 88
     682:	a4 88       	ldd	r10, Z+20	; 0x14
     684:	28 22       	and	r2, r24
     686:	b9 cd       	rjmp	.-1166   	; 0x1fa <__trampolines_end+0x192>
     688:	04 c3       	rjmp	.+1544   	; 0xc92 <u8g2_font_setup_decode+0x18>
     68a:	10 de       	rcall	.-992    	; 0x2ac <__trampolines_end+0x244>
     68c:	c2 8f       	std	Z+26, r28	; 0x1a
     68e:	64 1d       	adc	r22, r4
     690:	24 94       	.word	0x9424	; ????
     692:	91 22       	and	r9, r17
     694:	a2 88       	ldd	r10, Z+18	; 0x12
     696:	e4 36       	cpi	r30, 0x64	; 100
     698:	13 c4       	rjmp	.+2086   	; 0xec0 <u8g2_font_decode_glyph+0xb4>
     69a:	10 de       	rcall	.-992    	; 0x2bc <__trampolines_end+0x254>
     69c:	c2 8f       	std	Z+26, r28	; 0x1a
     69e:	ee 10       	cpse	r14, r14
     6a0:	a1 8c       	ldd	r10, Z+25	; 0x19
     6a2:	14 11       	cpse	r17, r4
     6a4:	45 24       	eor	r4, r5
     6a6:	b7 99       	sbic	0x16, 7	; 22
     6a8:	00 c5       	rjmp	.+2560   	; 0x10aa <u8g2_DrawGlyph+0x1c>
     6aa:	10 de       	rcall	.-992    	; 0x2cc <__trampolines_end+0x264>
     6ac:	c2 97       	sbiw	r24, 0x32	; 50
     6ae:	4c 12       	cpse	r4, r28
     6b0:	13 aa       	std	Z+51, r1	; 0x33
     6b2:	91 22       	and	r9, r17
     6b4:	a2 88       	ldd	r10, Z+18	; 0x12
     6b6:	e4 36       	cpi	r30, 0x64	; 100
     6b8:	13 c6       	rjmp	.+3110   	; 0x12e0 <u8g2_SetFont+0x20>
     6ba:	11 4f       	sbci	r17, 0xF1	; 241
     6bc:	c2 57       	subi	r28, 0x72	; 114
     6be:	69 38       	cpi	r22, 0x89	; 137
     6c0:	8b c8       	rjmp	.-3818   	; 0xfffff7d8 <__eeprom_end+0xff7ef7d8>
     6c2:	22 94       	swap	r2
     6c4:	88 a8       	ldd	r8, Y+48	; 0x30
     6c6:	14 12       	cpse	r1, r20
     6c8:	85 08       	sbc	r8, r5
     6ca:	c7 0d       	add	r28, r7
     6cc:	de ba       	out	0x1e, r13	; 30
     6ce:	d7 48       	sbci	r29, 0x87	; 135
     6d0:	42 d4       	rcall	.+2180   	; 0xf56 <u8g2_font_decode_glyph+0x14a>
     6d2:	55 22       	and	r5, r21
     6d4:	9a a9       	ldd	r25, Y+50	; 0x32
     6d6:	01 c8       	rjmp	.-4094   	; 0xfffff6da <__eeprom_end+0xff7ef6da>
     6d8:	0f de       	rcall	.-994    	; 0x2f8 <__trampolines_end+0x290>
     6da:	c2 c7       	rjmp	.+3972   	; 0x1660 <u8g2_apply_clip_window+0x1a>
     6dc:	54 0e       	add	r5, r20
     6de:	39 c4       	rjmp	.+2162   	; 0xf52 <u8g2_font_decode_glyph+0x146>
     6e0:	86 15       	cp	r24, r6
     6e2:	51 44       	sbci	r21, 0x41	; 65
     6e4:	28 3b       	cpi	r18, 0xB8	; 184
     6e6:	c9 0f       	add	r28, r25
     6e8:	de c2       	rjmp	.+1468   	; 0xca6 <u8g2_font_setup_decode+0x2c>
     6ea:	df 48       	sbci	r29, 0x8F	; 143
     6ec:	0e 39       	cpi	r16, 0x9E	; 158
     6ee:	c4 86       	std	Z+12, r12	; 0x0c
     6f0:	15 51       	subi	r17, 0x15	; 21
     6f2:	44 28       	or	r4, r4
     6f4:	3b ca       	rjmp	.-2954   	; 0xfffffb6c <__eeprom_end+0xff7efb6c>
     6f6:	0f de       	rcall	.-994    	; 0x316 <__trampolines_end+0x2ae>
     6f8:	c2 d7       	rcall	.+3972   	; 0x167e <u8g2_apply_clip_window+0x38>
     6fa:	48 22       	and	r4, r24
     6fc:	3e c4       	rjmp	.+2172   	; 0xf7a <u8g2_font_decode_glyph+0x16e>
     6fe:	86 15       	cp	r24, r6
     700:	51 44       	sbci	r21, 0x41	; 65
     702:	28 3b       	cpi	r18, 0xB8	; 184
     704:	cb 0e       	add	r12, r27
     706:	de c2       	rjmp	.+1468   	; 0xcc4 <u8g2_font_setup_decode+0x4a>
     708:	8f ce       	rjmp	.-738    	; 0x428 <__EEPROM_REGION_LENGTH__+0x28>
     70a:	87 d8       	rcall	.-3826   	; 0xfffff81a <__eeprom_end+0xff7ef81a>
     70c:	b0 22       	and	r11, r16
     70e:	8a 08       	sbc	r8, r10
     710:	65 07       	cpc	r22, r21
     712:	cc 0b       	sbc	r28, r28
     714:	de c2       	rjmp	.+1468   	; 0xcd2 <u8g2_font_decode_get_signed_bits+0x6>
     716:	c7 54       	subi	r28, 0x47	; 71
     718:	0e 31       	cpi	r16, 0x1E	; 30
     71a:	09 f5       	brne	.+66     	; 0x75e <__EEPROM_REGION_LENGTH__+0x35e>
     71c:	64 cd       	rjmp	.-1336   	; 0x1e6 <__trampolines_end+0x17e>
     71e:	0b de       	rcall	.-1002   	; 0x336 <__trampolines_end+0x2ce>
     720:	c2 df       	rcall	.-124    	; 0x6a6 <__EEPROM_REGION_LENGTH__+0x2a6>
     722:	48 0e       	add	r4, r24
     724:	31 09       	sbc	r19, r1
     726:	f5 64       	ori	r31, 0x45	; 69
     728:	ce 0b       	sbc	r28, r30
     72a:	de c2       	rjmp	.+1468   	; 0xce8 <u8g2_add_vector_y>
     72c:	d7 48       	sbci	r29, 0x87	; 135
     72e:	22 36       	cpi	r18, 0x62	; 98
     730:	09 f5       	brne	.+66     	; 0x774 <__EEPROM_REGION_LENGTH__+0x374>
     732:	64 cf       	rjmp	.-312    	; 0x5fc <__EEPROM_REGION_LENGTH__+0x1fc>
     734:	0a de       	rcall	.-1004   	; 0x34a <__trampolines_end+0x2e2>
     736:	c2 8f       	std	Z+26, r28	; 0x1a
     738:	ce 26       	eor	r12, r30
     73a:	a1 9e       	mul	r10, r17
     73c:	0c d0       	rcall	.+24     	; 0x756 <__EEPROM_REGION_LENGTH__+0x356>
     73e:	11 4f       	sbci	r17, 0xF1	; 241
     740:	c2 0f       	add	r28, r18
     742:	4d 14       	cp	r4, r13
     744:	52 11       	cpse	r21, r2
     746:	59 94       	.word	0x9459	; ????
     748:	24 22       	and	r2, r20
     74a:	89 28       	or	r8, r9
     74c:	44 02       	muls	r20, r20
     74e:	d1 0d       	add	r29, r1
     750:	de c2       	rjmp	.+1468   	; 0xd0e <u8g2_add_vector_y+0x26>
     752:	8f 64       	ori	r24, 0x4F	; 79
     754:	5d 46       	sbci	r21, 0x6D	; 109
     756:	22 49       	sbci	r18, 0x92	; 146
     758:	74 62       	ori	r23, 0x24	; 36
     75a:	13 d2       	rcall	.+1062   	; 0xb82 <u8g2_read_font_info+0x20>
     75c:	0d de       	rcall	.-998    	; 0x378 <__trampolines_end+0x310>
     75e:	c2 c7       	rjmp	.+3972   	; 0x16e4 <u8g2_apply_clip_window+0x9e>
     760:	54 0e       	add	r5, r20
     762:	a2 88       	ldd	r10, Z+18	; 0x12
     764:	f8 24       	eor	r15, r8
     766:	a1 00       	.word	0x00a1	; ????
     768:	d3 0d       	add	r29, r3
     76a:	de c2       	rjmp	.+1468   	; 0xd28 <u8g2_add_vector_x+0xe>
     76c:	df 48       	sbci	r29, 0x8F	; 143
     76e:	0e a2       	std	Y+38, r0	; 0x26
     770:	88 f8       	.word	0xf888	; ????
     772:	24 a1       	ldd	r18, Z+36	; 0x24
     774:	00 d4       	rcall	.+2048   	; 0xf76 <u8g2_font_decode_glyph+0x16a>
     776:	0d de       	rcall	.-998    	; 0x392 <__trampolines_end+0x32a>
     778:	c2 d7       	rcall	.+3972   	; 0x16fe <u8g2_update_page_win_r0+0xc>
     77a:	48 22       	and	r4, r24
     77c:	a7 88       	ldd	r10, Z+23	; 0x17
     77e:	f8 24       	eor	r15, r8
     780:	a1 00       	.word	0x00a1	; ????
     782:	d5 0d       	add	r29, r5
     784:	de c2       	rjmp	.+1468   	; 0xd42 <u8g2_add_vector_x+0x28>
     786:	8f 64       	ori	r24, 0x4F	; 79
     788:	1d 42       	sbci	r17, 0x2D	; 45
     78a:	11 f1       	breq	.+68     	; 0x7d0 <__EEPROM_REGION_LENGTH__+0x3d0>
     78c:	49 42       	sbci	r20, 0x29	; 41
     78e:	01 d6       	rcall	.+3074   	; 0x1392 <u8g2_DrawHVLine+0x82>
     790:	0c de       	rcall	.-1000   	; 0x3aa <__trampolines_end+0x342>
     792:	c2 8f       	std	Z+26, r28	; 0x1a
     794:	ee 14       	cp	r14, r14
     796:	11 9f       	mul	r17, r17
     798:	24 14       	cp	r2, r4
     79a:	00 d7       	rcall	.+3584   	; 0x159c <u8g2_ll_hvline_vertical_top_lsb+0xce>
     79c:	0b ae       	std	Y+59, r0	; 0x3b
     79e:	ca 87       	std	Y+10, r28	; 0x0a
     7a0:	48 42       	sbci	r20, 0x28	; 40
     7a2:	93 51       	subi	r25, 0x13	; 19
     7a4:	44 02       	muls	r20, r20
     7a6:	d8 10       	cpse	r13, r8
     7a8:	de be       	out	0x3e, r13	; 62
     7aa:	6f 84       	ldd	r6, Y+15	; 0x0f
     7ac:	22 a2       	std	Z+34, r2	; 0x22
     7ae:	54 0e       	add	r5, r20
     7b0:	95 0a       	sbc	r9, r21
     7b2:	49 42       	sbci	r20, 0x29	; 41
     7b4:	89 02       	muls	r24, r25
     7b6:	d9 0c       	add	r13, r9
     7b8:	de c2       	rjmp	.+1468   	; 0xd76 <u8g2_font_decode_len+0x2a>
     7ba:	c7 54       	subi	r28, 0x47	; 71
     7bc:	0e 11       	cpse	r16, r14
     7be:	f1 93       	st	Z+, r31	; undefined
     7c0:	84 02       	muls	r24, r20
     7c2:	da 0c       	add	r13, r10
     7c4:	de c2       	rjmp	.+1468   	; 0xd82 <u8g2_font_decode_len+0x36>
     7c6:	df 48       	sbci	r29, 0x8F	; 143
     7c8:	0e 11       	cpse	r16, r14
     7ca:	f1 93       	st	Z+, r31	; undefined
     7cc:	84 02       	muls	r24, r20
     7ce:	db 0c       	add	r13, r11
     7d0:	de c2       	rjmp	.+1468   	; 0xd8e <u8g2_font_decode_len+0x42>
     7d2:	d7 48       	sbci	r29, 0x87	; 135
     7d4:	22 16       	cp	r2, r18
     7d6:	f1 93       	st	Z+, r31	; undefined
     7d8:	84 02       	muls	r24, r20
     7da:	dc 0b       	sbc	r29, r28
     7dc:	de c2       	rjmp	.+1468   	; 0xd9a <u8g2_font_decode_len+0x4e>
     7de:	8f ce       	rjmp	.-738    	; 0x4fe <__EEPROM_REGION_LENGTH__+0xfe>
     7e0:	22 7e       	andi	r18, 0xE2	; 226
     7e2:	92 50       	subi	r25, 0x02	; 2
     7e4:	00 dd       	rcall	.-1536   	; 0x1e6 <__trampolines_end+0x17e>
     7e6:	0f de       	rcall	.-994    	; 0x406 <__EEPROM_REGION_LENGTH__+0x6>
     7e8:	c2 df       	rcall	.-124    	; 0x76e <__EEPROM_REGION_LENGTH__+0x36e>
     7ea:	48 0e       	add	r4, r24
     7ec:	11 91       	ld	r17, Z+
     7ee:	24 92       	xch	Z, r2
     7f0:	d0 50       	subi	r29, 0x00	; 0
     7f2:	27 00       	.word	0x0027	; ????
     7f4:	de 0d       	add	r29, r14
     7f6:	ce c2       	rjmp	.+1436   	; 0xd94 <u8g2_font_decode_len+0x48>
     7f8:	87 50       	subi	r24, 0x07	; 7
     7fa:	58 11       	cpse	r21, r8
     7fc:	31 5d       	subi	r19, 0xD1	; 209
     7fe:	84 42       	sbci	r24, 0x24	; 36
     800:	00 df       	rcall	.-512    	; 0x602 <__EEPROM_REGION_LENGTH__+0x202>
     802:	0e d6       	rcall	.+3100   	; 0x1420 <u8g2_DrawHVLine+0x110>
     804:	c2 cf       	rjmp	.-124    	; 0x78a <__EEPROM_REGION_LENGTH__+0x38a>
     806:	48 a2       	std	Y+32, r4	; 0x20
     808:	4b 48       	sbci	r20, 0x8B	; 139
     80a:	a2 c4       	rjmp	.+2372   	; 0x1150 <u8g2_DrawGlyph+0xc2>
     80c:	8b 04       	cpc	r8, r11
     80e:	00 e0       	ldi	r16, 0x00	; 0
     810:	0f de       	rcall	.-994    	; 0x430 <__EEPROM_REGION_LENGTH__+0x30>
     812:	c2 8f       	std	Z+26, r28	; 0x1a
     814:	54 1a       	sub	r5, r20
     816:	07 91       	elpm	r16, Z+
     818:	24 42       	sbci	r18, 0x24	; 36
     81a:	c9 89       	ldd	r28, Y+17	; 0x11
     81c:	24 29       	or	r18, r4
     81e:	e1 0f       	add	r30, r17
     820:	de c2       	rjmp	.+1468   	; 0xdde <u8g2_font_decode_len+0x92>
     822:	a7 4c       	sbci	r26, 0xC7	; 199
     824:	18 07       	cpc	r17, r24
     826:	91 24       	eor	r9, r1
     828:	42 c9       	rjmp	.-3452   	; 0xfffffaae <__eeprom_end+0xff7efaae>
     82a:	89 24       	eor	r8, r9
     82c:	29 e2       	ldi	r18, 0x29	; 41
     82e:	0f de       	rcall	.-994    	; 0x44e <__EEPROM_REGION_LENGTH__+0x4e>
     830:	c2 97       	sbiw	r24, 0x32	; 50
     832:	8c 94 0e 21 	jmp	0x20421c	; 0x20421c <__TEXT_REGION_LENGTH__+0x1fc21c>
     836:	49 84       	ldd	r4, Y+9	; 0x09
     838:	92 13       	cpse	r25, r18
     83a:	49 52       	subi	r20, 0x29	; 41
     83c:	e3 10       	cpse	r14, r3
     83e:	de c2       	rjmp	.+1468   	; 0xdfc <u8g2_font_decode_len+0xb0>
     840:	57 4a       	sbci	r21, 0xA7	; 167
     842:	25 14       	cp	r2, r5
     844:	87 90       	elpm	r8, Z+
     846:	24 42       	sbci	r18, 0x24	; 36
     848:	c9 89       	ldd	r28, Y+17	; 0x11
     84a:	24 29       	or	r18, r4
     84c:	e4 0d       	add	r30, r4
     84e:	d6 c2       	rjmp	.+1452   	; 0xdfc <u8g2_font_decode_len+0xb0>
     850:	8f ee       	ldi	r24, 0xEF	; 239
     852:	24 89       	ldd	r18, Z+20	; 0x14
     854:	50 72       	andi	r21, 0x20	; 32
     856:	22 49       	sbci	r18, 0x92	; 146
     858:	0a e5       	ldi	r16, 0x5A	; 90
     85a:	10 de       	rcall	.-992    	; 0x47c <__EEPROM_REGION_LENGTH__+0x7c>
     85c:	c2 97       	sbiw	r24, 0x32	; 50
     85e:	4c 12       	cpse	r4, r28
     860:	93 83       	std	Z+3, r25	; 0x03
     862:	48 12       	cpse	r4, r24
     864:	a1 e4       	ldi	r26, 0x41	; 65
     866:	44 92       	xch	Z, r4
     868:	14 e6       	ldi	r17, 0x64	; 100
     86a:	0e be       	out	0x3e, r0	; 62
     86c:	c2 cf       	rjmp	.-124    	; 0x7f2 <__EEPROM_REGION_LENGTH__+0x3f2>
     86e:	41 12       	cpse	r4, r17
     870:	92 44       	sbci	r25, 0x42	; 66
     872:	2c a2       	std	Y+36, r2	; 0x24
     874:	88 e4       	ldi	r24, 0x48	; 72
     876:	00 e7       	ldi	r16, 0x70	; 112
     878:	0c ce       	rjmp	.-1000   	; 0x492 <__EEPROM_REGION_LENGTH__+0x92>
     87a:	ba 0f       	add	r27, r26
     87c:	45 44       	sbci	r20, 0x45	; 69
     87e:	d4 24       	eor	r13, r4
     880:	a1 a9       	ldd	r26, Z+49	; 0x31
     882:	01 e8       	ldi	r16, 0x81	; 129
     884:	10 de       	rcall	.-992    	; 0x4a6 <__EEPROM_REGION_LENGTH__+0xa6>
     886:	c2 8f       	std	Z+26, r28	; 0x1a
     888:	54 1a       	sub	r5, r20
     88a:	07 51       	subi	r16, 0x17	; 23
     88c:	44 a4       	ldd	r4, Z+44	; 0x2c
     88e:	c3 50       	subi	r28, 0x03	; 3
     890:	24 a1       	ldd	r18, Z+36	; 0x24
     892:	00 e9       	ldi	r16, 0x90	; 144
     894:	10 de       	rcall	.-992    	; 0x4b6 <__EEPROM_REGION_LENGTH__+0xb6>
     896:	c2 a7       	std	Z+42, r28	; 0x2a
     898:	4c 18       	sub	r4, r12
     89a:	07 51       	subi	r16, 0x17	; 23
     89c:	44 a4       	ldd	r4, Z+44	; 0x2c
     89e:	c3 50       	subi	r28, 0x03	; 3
     8a0:	24 a1       	ldd	r18, Z+36	; 0x24
     8a2:	00 ea       	ldi	r16, 0xA0	; 160
     8a4:	10 de       	rcall	.-992    	; 0x4c6 <__EEPROM_REGION_LENGTH__+0xc6>
     8a6:	c2 97       	sbiw	r24, 0x32	; 50
     8a8:	8c 94 0e a1 	jmp	0x21421c	; 0x21421c <__TEXT_REGION_LENGTH__+0x20c21c>
     8ac:	88 48       	sbci	r24, 0x88	; 136
     8ae:	87 a1       	ldd	r24, Z+39	; 0x27
     8b0:	48 42       	sbci	r20, 0x28	; 40
     8b2:	01 eb       	ldi	r16, 0xB1	; 177
     8b4:	0e d6       	rcall	.+3100   	; 0x14d2 <u8g2_ll_hvline_vertical_top_lsb+0x4>
     8b6:	c2 8f       	std	Z+26, r28	; 0x1a
     8b8:	ee 14       	cp	r14, r14
     8ba:	11 e9       	ldi	r17, 0x91	; 145
     8bc:	30 14       	cp	r3, r0
     8be:	49 28       	or	r4, r9
     8c0:	00 ec       	ldi	r16, 0xC0	; 192
     8c2:	0b de       	rcall	.-1002   	; 0x4da <__EEPROM_REGION_LENGTH__+0xda>
     8c4:	c2 8f       	std	Z+26, r28	; 0x1a
     8c6:	54 1a       	sub	r5, r20
     8c8:	07 0d       	add	r16, r7
     8ca:	f5 64       	ori	r31, 0x45	; 69
     8cc:	ed 0b       	sbc	r30, r29
     8ce:	de c2       	rjmp	.+1468   	; 0xe8c <u8g2_font_decode_glyph+0x80>
     8d0:	9f 62       	ori	r25, 0x2F	; 47
     8d2:	1c 36       	cpi	r17, 0x6C	; 108
     8d4:	d4 93       	xch	Z, r29
     8d6:	01 ee       	ldi	r16, 0xE1	; 225
     8d8:	0c de       	rcall	.-1000   	; 0x4f2 <__EEPROM_REGION_LENGTH__+0xf2>
     8da:	c2 97       	sbiw	r24, 0x32	; 50
     8dc:	8c 94 0e 19 	jmp	0x20321c	; 0x20321c <__TEXT_REGION_LENGTH__+0x1fb21c>
     8e0:	ea c9       	rjmp	.-3116   	; 0xfffffcb6 <__eeprom_end+0xff7efcb6>
     8e2:	00 ef       	ldi	r16, 0xF0	; 240
     8e4:	0b d6       	rcall	.+3094   	; 0x14fc <u8g2_ll_hvline_vertical_top_lsb+0x2e>
     8e6:	c2 87       	std	Z+10, r28	; 0x0a
     8e8:	44 3b       	cpi	r20, 0xB4	; 180
     8ea:	64 a8       	ldd	r6, Z+52	; 0x34
     8ec:	27 03       	mulsu	r18, r23
     8ee:	f0 10       	cpse	r15, r0
     8f0:	d6 c2       	rjmp	.+1452   	; 0xe9e <u8g2_font_decode_glyph+0x92>
     8f2:	87 44       	sbci	r24, 0x47	; 71
     8f4:	34 92       	xch	Z, r3
     8f6:	04 47       	sbci	r16, 0x74	; 116
     8f8:	12 12       	cpse	r1, r18
     8fa:	27 09       	sbc	r18, r7
     8fc:	05 00       	.word	0x0005	; ????
     8fe:	f1 0e       	add	r15, r17
     900:	de c2       	rjmp	.+1468   	; 0xebe <u8g2_font_decode_glyph+0xb2>
     902:	57 4a       	sbci	r21, 0xA7	; 167
     904:	25 14       	cp	r2, r5
     906:	97 48       	sbci	r25, 0x87	; 135
     908:	26 24       	eor	r2, r6
     90a:	9e 04       	cpc	r9, r14
     90c:	f2 0e       	add	r15, r18
     90e:	de c2       	rjmp	.+1468   	; 0xecc <u8g2_font_decode_glyph+0xc0>
     910:	8f 54       	subi	r24, 0x4F	; 79
     912:	1a 07       	cpc	r17, r26
     914:	51 44       	sbci	r21, 0x41	; 65
     916:	3c 49       	sbci	r19, 0x9C	; 156
     918:	28 00       	.word	0x0028	; ????
     91a:	f3 0e       	add	r15, r19
     91c:	de c2       	rjmp	.+1468   	; 0xeda <u8g2_font_decode_glyph+0xce>
     91e:	a7 4c       	sbci	r26, 0xC7	; 199
     920:	18 07       	cpc	r17, r24
     922:	51 44       	sbci	r21, 0x41	; 65
     924:	3c 49       	sbci	r19, 0x9C	; 156
     926:	28 00       	.word	0x0028	; ????
     928:	f4 0e       	add	r15, r20
     92a:	de c2       	rjmp	.+1468   	; 0xee8 <u8g2_font_decode_glyph+0xdc>
     92c:	97 8c       	ldd	r9, Z+31	; 0x1f
     92e:	94 0e       	add	r9, r20
     930:	a1 88       	ldd	r10, Z+17	; 0x11
     932:	78 92       	.word	0x9278	; ????
     934:	50 00       	.word	0x0050	; ????
     936:	f5 0f       	add	r31, r21
     938:	de c2       	rjmp	.+1468   	; 0xef6 <u8g2_font_decode_glyph+0xea>
     93a:	57 4a       	sbci	r21, 0xA7	; 167
     93c:	25 14       	cp	r2, r5
     93e:	87 50       	subi	r24, 0x07	; 7
     940:	44 3c       	cpi	r20, 0xC4	; 196
     942:	49 28       	or	r4, r9
     944:	00 f6       	brcc	.-128    	; 0x8c6 <__DATA_REGION_LENGTH__+0xc6>
     946:	0c d6       	rcall	.+3096   	; 0x1560 <u8g2_ll_hvline_vertical_top_lsb+0x92>
     948:	c2 8f       	std	Z+26, r28	; 0x1a
     94a:	ee 14       	cp	r14, r14
     94c:	11 4f       	sbci	r17, 0xF1	; 241
     94e:	12 0a       	sbc	r1, r18
     950:	00 f7       	brcc	.-64     	; 0x912 <__stack+0x13>
     952:	0d c6       	rjmp	.+3098   	; 0x156e <u8g2_ll_hvline_vertical_top_lsb+0xa0>
     954:	c2 97       	sbiw	r24, 0x32	; 50
     956:	50 0e       	add	r5, r16
     958:	39 d4       	rcall	.+2162   	; 0x11cc <u8g2_draw_string+0x78>
     95a:	21 42       	sbci	r18, 0x21	; 33
     95c:	11 00       	.word	0x0011	; ????
     95e:	f8 0e       	add	r15, r24
     960:	ce be       	out	0x3e, r12	; 62
     962:	6f 84       	ldd	r6, Y+15	; 0x0f
     964:	22 a2       	std	Z+34, r2	; 0x22
     966:	1c 2a       	or	r1, r28
     968:	24 09       	sbc	r18, r4
     96a:	25 0a       	sbc	r2, r21
     96c:	f9 0c       	add	r15, r9
     96e:	de c2       	rjmp	.+1468   	; 0xf2c <u8g2_font_decode_glyph+0x120>
     970:	8f 54       	subi	r24, 0x4F	; 79
     972:	1a 87       	std	Y+10, r17	; 0x0a
     974:	88 f8       	.word	0xf888	; ????
     976:	32 51       	subi	r19, 0x12	; 18
     978:	fa 0c       	add	r15, r10
     97a:	de c2       	rjmp	.+1468   	; 0xf38 <u8g2_font_decode_glyph+0x12c>
     97c:	a7 4c       	sbci	r26, 0xC7	; 199
     97e:	18 87       	std	Y+8, r17	; 0x08
     980:	88 f8       	.word	0xf888	; ????
     982:	32 51       	subi	r19, 0x12	; 18
     984:	fb 0c       	add	r15, r11
     986:	de c2       	rjmp	.+1468   	; 0xf44 <u8g2_font_decode_glyph+0x138>
     988:	97 8c       	ldd	r9, Z+31	; 0x1f
     98a:	94 2e       	mov	r9, r20
     98c:	e2 cb       	rjmp	.-2108   	; 0x152 <__trampolines_end+0xea>
     98e:	44 01       	movw	r8, r8
     990:	fc 0a       	sbc	r15, r28
     992:	d6 c2       	rjmp	.+1452   	; 0xf40 <u8g2_font_decode_glyph+0x134>
     994:	8f ce       	rjmp	.-738    	; 0x6b4 <__EEPROM_REGION_LENGTH__+0x2b4>
     996:	22 be       	out	0x32, r2	; 50
     998:	4c 14       	cp	r4, r12
     99a:	fd 15       	cp	r31, r13
     99c:	ee ba       	out	0x1e, r14	; 30
     99e:	a7 4c       	sbci	r26, 0xC7	; 199
     9a0:	18 87       	std	Y+8, r17	; 0x08
     9a2:	c8 66       	ori	r28, 0x68	; 104
     9a4:	11 49       	sbci	r17, 0x91	; 145
     9a6:	48 12       	cpse	r4, r24
     9a8:	9b 49       	sbci	r25, 0x9B	; 155
     9aa:	43 11       	cpse	r20, r3
     9ac:	d1 0c       	add	r13, r1
     9ae:	00 fe       	sbrs	r0, 0
     9b0:	0f e6       	ldi	r16, 0x6F	; 111
     9b2:	ba 87       	std	Y+10, r27	; 0x0a
     9b4:	50 8b       	std	Z+16, r21	; 0x10
     9b6:	64 42       	sbci	r22, 0x24	; 36
     9b8:	62 aa       	std	Z+50, r6	; 0x32
     9ba:	50 14       	cp	r5, r0
     9bc:	85 00       	.word	0x0085	; ????
     9be:	ff 12       	cpse	r15, r31
     9c0:	e6 ba       	out	0x16, r14	; 22
     9c2:	8f ce       	rjmp	.-738    	; 0x6e2 <__EEPROM_REGION_LENGTH__+0x2e2>
     9c4:	b2 59       	subi	r27, 0x92	; 146
     9c6:	44 12       	cpse	r4, r20
     9c8:	92 c4       	rjmp	.+2340   	; 0x12ee <u8g2_SetFont+0x2e>
     9ca:	66 d2       	rcall	.+1228   	; 0xe98 <u8g2_font_decode_glyph+0x8c>
     9cc:	50 44       	sbci	r21, 0x40	; 64
     9ce:	34 03       	mulsu	r19, r20
     9d0:	00 00       	nop
     9d2:	00 04       	cpc	r0, r0
     9d4:	ff ff       	.word	0xffff	; ????
	...

000009d8 <__ctors_end>:
     9d8:	11 24       	eor	r1, r1
     9da:	1f be       	out	0x3f, r1	; 63
     9dc:	cf ef       	ldi	r28, 0xFF	; 255
     9de:	d8 e0       	ldi	r29, 0x08	; 8
     9e0:	de bf       	out	0x3e, r29	; 62
     9e2:	cd bf       	out	0x3d, r28	; 61

000009e4 <__do_copy_data>:
     9e4:	11 e0       	ldi	r17, 0x01	; 1
     9e6:	a0 e0       	ldi	r26, 0x00	; 0
     9e8:	b1 e0       	ldi	r27, 0x01	; 1
     9ea:	e8 ed       	ldi	r30, 0xD8	; 216
     9ec:	fe e1       	ldi	r31, 0x1E	; 30
     9ee:	02 c0       	rjmp	.+4      	; 0x9f4 <__do_copy_data+0x10>
     9f0:	05 90       	lpm	r0, Z+
     9f2:	0d 92       	st	X+, r0
     9f4:	ae 37       	cpi	r26, 0x7E	; 126
     9f6:	b1 07       	cpc	r27, r17
     9f8:	d9 f7       	brne	.-10     	; 0x9f0 <__do_copy_data+0xc>

000009fa <__do_clear_bss>:
     9fa:	25 e0       	ldi	r18, 0x05	; 5
     9fc:	ae e7       	ldi	r26, 0x7E	; 126
     9fe:	b1 e0       	ldi	r27, 0x01	; 1
     a00:	01 c0       	rjmp	.+2      	; 0xa04 <.do_clear_bss_start>

00000a02 <.do_clear_bss_loop>:
     a02:	1d 92       	st	X+, r1

00000a04 <.do_clear_bss_start>:
     a04:	a4 3f       	cpi	r26, 0xF4	; 244
     a06:	b2 07       	cpc	r27, r18
     a08:	e1 f7       	brne	.-8      	; 0xa02 <.do_clear_bss_loop>
     a0a:	0e 94 fb 0e 	call	0x1df6	; 0x1df6 <main>
     a0e:	0c 94 6a 0f 	jmp	0x1ed4	; 0x1ed4 <_exit>

00000a12 <__bad_interrupt>:
     a12:	0c 94 00 00 	jmp	0	; 0x0 <__vectors>

00000a16 <u8g2_send_buffer>:
     a16:	af 92       	push	r10
     a18:	bf 92       	push	r11
     a1a:	cf 92       	push	r12
     a1c:	df 92       	push	r13
     a1e:	ef 92       	push	r14
     a20:	ff 92       	push	r15
     a22:	0f 93       	push	r16
     a24:	1f 93       	push	r17
     a26:	cf 93       	push	r28
     a28:	df 93       	push	r29
     a2a:	ec 01       	movw	r28, r24
     a2c:	ac a0       	ldd	r10, Y+36	; 0x24
     a2e:	ed a0       	ldd	r14, Y+37	; 0x25
     a30:	e8 81       	ld	r30, Y
     a32:	f9 81       	ldd	r31, Y+1	; 0x01
     a34:	b1 88       	ldd	r11, Z+17	; 0x11
     a36:	fe 2c       	mov	r15, r14
     a38:	c1 2c       	mov	r12, r1
     a3a:	d1 2c       	mov	r13, r1
     a3c:	e8 81       	ld	r30, Y
     a3e:	f9 81       	ldd	r31, Y+1	; 0x01
     a40:	20 89       	ldd	r18, Z+16	; 0x10
     a42:	0a a1       	ldd	r16, Y+34	; 0x22
     a44:	1b a1       	ldd	r17, Y+35	; 0x23
     a46:	88 e0       	ldi	r24, 0x08	; 8
     a48:	28 9f       	mul	r18, r24
     a4a:	a0 01       	movw	r20, r0
     a4c:	11 24       	eor	r1, r1
     a4e:	4c 9d       	mul	r20, r12
     a50:	c0 01       	movw	r24, r0
     a52:	4d 9d       	mul	r20, r13
     a54:	90 0d       	add	r25, r0
     a56:	5c 9d       	mul	r21, r12
     a58:	90 0d       	add	r25, r0
     a5a:	11 24       	eor	r1, r1
     a5c:	08 0f       	add	r16, r24
     a5e:	19 1f       	adc	r17, r25
     a60:	4f 2d       	mov	r20, r15
     a62:	60 e0       	ldi	r22, 0x00	; 0
     a64:	ce 01       	movw	r24, r28
     a66:	0e 94 00 0d 	call	0x1a00	; 0x1a00 <u8x8_DrawTile>
     a6a:	f3 94       	inc	r15
     a6c:	8f 2d       	mov	r24, r15
     a6e:	8e 19       	sub	r24, r14
     a70:	8a 15       	cp	r24, r10
     a72:	28 f4       	brcc	.+10     	; 0xa7e <u8g2_send_buffer+0x68>
     a74:	8f ef       	ldi	r24, 0xFF	; 255
     a76:	c8 1a       	sub	r12, r24
     a78:	d8 0a       	sbc	r13, r24
     a7a:	fb 14       	cp	r15, r11
     a7c:	f8 f2       	brcs	.-66     	; 0xa3c <u8g2_send_buffer+0x26>
     a7e:	df 91       	pop	r29
     a80:	cf 91       	pop	r28
     a82:	1f 91       	pop	r17
     a84:	0f 91       	pop	r16
     a86:	ff 90       	pop	r15
     a88:	ef 90       	pop	r14
     a8a:	df 90       	pop	r13
     a8c:	cf 90       	pop	r12
     a8e:	bf 90       	pop	r11
     a90:	af 90       	pop	r10
     a92:	08 95       	ret

00000a94 <u8g2_ClearBuffer>:
     a94:	fc 01       	movw	r30, r24
     a96:	a0 81       	ld	r26, Z
     a98:	b1 81       	ldd	r27, Z+1	; 0x01
     a9a:	50 96       	adiw	r26, 0x10	; 16
     a9c:	9c 91       	ld	r25, X
     a9e:	44 a1       	ldd	r20, Z+36	; 0x24
     aa0:	94 9f       	mul	r25, r20
     aa2:	a0 01       	movw	r20, r0
     aa4:	11 24       	eor	r1, r1
     aa6:	83 e0       	ldi	r24, 0x03	; 3
     aa8:	44 0f       	add	r20, r20
     aaa:	55 1f       	adc	r21, r21
     aac:	8a 95       	dec	r24
     aae:	e1 f7       	brne	.-8      	; 0xaa8 <u8g2_ClearBuffer+0x14>
     ab0:	60 e0       	ldi	r22, 0x00	; 0
     ab2:	70 e0       	ldi	r23, 0x00	; 0
     ab4:	82 a1       	ldd	r24, Z+34	; 0x22
     ab6:	93 a1       	ldd	r25, Z+35	; 0x23
     ab8:	0c 94 63 0f 	jmp	0x1ec6	; 0x1ec6 <memset>

00000abc <u8g2_SendBuffer>:
     abc:	cf 93       	push	r28
     abe:	df 93       	push	r29
     ac0:	ec 01       	movw	r28, r24
     ac2:	0e 94 0b 05 	call	0xa16	; 0xa16 <u8g2_send_buffer>
     ac6:	ce 01       	movw	r24, r28
     ac8:	df 91       	pop	r29
     aca:	cf 91       	pop	r28
     acc:	0c 94 41 0d 	jmp	0x1a82	; 0x1a82 <u8x8_RefreshDisplay>

00000ad0 <u8g2_m_16_8_f>:
     ad0:	28 e0       	ldi	r18, 0x08	; 8
     ad2:	fc 01       	movw	r30, r24
     ad4:	20 83       	st	Z, r18
     ad6:	8e e7       	ldi	r24, 0x7E	; 126
     ad8:	91 e0       	ldi	r25, 0x01	; 1
     ada:	08 95       	ret

00000adc <u8g2_Setup_ssd1306_128x64_alt0_f>:
     adc:	cf 92       	push	r12
     ade:	df 92       	push	r13
     ae0:	ef 92       	push	r14
     ae2:	ff 92       	push	r15
     ae4:	0f 93       	push	r16
     ae6:	1f 93       	push	r17
     ae8:	cf 93       	push	r28
     aea:	df 93       	push	r29
     aec:	1f 92       	push	r1
     aee:	cd b7       	in	r28, 0x3d	; 61
     af0:	de b7       	in	r29, 0x3e	; 62
     af2:	7c 01       	movw	r14, r24
     af4:	6b 01       	movw	r12, r22
     af6:	89 01       	movw	r16, r18
     af8:	9a 01       	movw	r18, r20
     afa:	47 e8       	ldi	r20, 0x87	; 135
     afc:	5c e0       	ldi	r21, 0x0C	; 12
     afe:	62 ec       	ldi	r22, 0xC2	; 194
     b00:	7d e0       	ldi	r23, 0x0D	; 13
     b02:	0e 94 03 0e 	call	0x1c06	; 0x1c06 <u8x8_Setup>
     b06:	ce 01       	movw	r24, r28
     b08:	01 96       	adiw	r24, 0x01	; 1
     b0a:	0e 94 68 05 	call	0xad0	; 0xad0 <u8g2_m_16_8_f>
     b0e:	86 01       	movw	r16, r12
     b10:	27 e6       	ldi	r18, 0x67	; 103
     b12:	3a e0       	ldi	r19, 0x0A	; 10
     b14:	49 81       	ldd	r20, Y+1	; 0x01
     b16:	bc 01       	movw	r22, r24
     b18:	c7 01       	movw	r24, r14
     b1a:	0e 94 a8 0b 	call	0x1750	; 0x1750 <u8g2_SetupBuffer>
     b1e:	0f 90       	pop	r0
     b20:	df 91       	pop	r29
     b22:	cf 91       	pop	r28
     b24:	1f 91       	pop	r17
     b26:	0f 91       	pop	r16
     b28:	ff 90       	pop	r15
     b2a:	ef 90       	pop	r14
     b2c:	df 90       	pop	r13
     b2e:	cf 90       	pop	r12
     b30:	08 95       	ret

00000b32 <u8g2_font_get_word>:
     b32:	fc 01       	movw	r30, r24
     b34:	e6 0f       	add	r30, r22
     b36:	f1 1d       	adc	r31, r1
     b38:	84 91       	lpm	r24, Z
     b3a:	90 e0       	ldi	r25, 0x00	; 0
     b3c:	98 2f       	mov	r25, r24
     b3e:	88 27       	eor	r24, r24
     b40:	31 96       	adiw	r30, 0x01	; 1
     b42:	e4 91       	lpm	r30, Z
     b44:	8e 0f       	add	r24, r30
     b46:	91 1d       	adc	r25, r1
     b48:	08 95       	ret

00000b4a <u8g2_font_calc_vref_font>:
     b4a:	80 e0       	ldi	r24, 0x00	; 0
     b4c:	90 e0       	ldi	r25, 0x00	; 0
     b4e:	08 95       	ret

00000b50 <u8g2_font_calc_vref_top>:
     b50:	80 59       	subi	r24, 0x90	; 144
     b52:	9f 4f       	sbci	r25, 0xFF	; 255
     b54:	fc 01       	movw	r30, r24
     b56:	80 81       	ld	r24, Z
     b58:	08 2e       	mov	r0, r24
     b5a:	00 0c       	add	r0, r0
     b5c:	99 0b       	sbc	r25, r25
     b5e:	01 96       	adiw	r24, 0x01	; 1
     b60:	08 95       	ret

00000b62 <u8g2_read_font_info>:
     b62:	0f 93       	push	r16
     b64:	1f 93       	push	r17
     b66:	cf 93       	push	r28
     b68:	df 93       	push	r29
     b6a:	ec 01       	movw	r28, r24
     b6c:	8b 01       	movw	r16, r22
     b6e:	fb 01       	movw	r30, r22
     b70:	84 91       	lpm	r24, Z
     b72:	88 83       	st	Y, r24
     b74:	31 96       	adiw	r30, 0x01	; 1
     b76:	e4 91       	lpm	r30, Z
     b78:	e9 83       	std	Y+1, r30	; 0x01
     b7a:	fb 01       	movw	r30, r22
     b7c:	32 96       	adiw	r30, 0x02	; 2
     b7e:	e4 91       	lpm	r30, Z
     b80:	ea 83       	std	Y+2, r30	; 0x02
     b82:	fb 01       	movw	r30, r22
     b84:	33 96       	adiw	r30, 0x03	; 3
     b86:	e4 91       	lpm	r30, Z
     b88:	eb 83       	std	Y+3, r30	; 0x03
     b8a:	fb 01       	movw	r30, r22
     b8c:	34 96       	adiw	r30, 0x04	; 4
     b8e:	e4 91       	lpm	r30, Z
     b90:	ec 83       	std	Y+4, r30	; 0x04
     b92:	fb 01       	movw	r30, r22
     b94:	35 96       	adiw	r30, 0x05	; 5
     b96:	e4 91       	lpm	r30, Z
     b98:	ed 83       	std	Y+5, r30	; 0x05
     b9a:	fb 01       	movw	r30, r22
     b9c:	36 96       	adiw	r30, 0x06	; 6
     b9e:	e4 91       	lpm	r30, Z
     ba0:	ee 83       	std	Y+6, r30	; 0x06
     ba2:	fb 01       	movw	r30, r22
     ba4:	37 96       	adiw	r30, 0x07	; 7
     ba6:	e4 91       	lpm	r30, Z
     ba8:	ef 83       	std	Y+7, r30	; 0x07
     baa:	fb 01       	movw	r30, r22
     bac:	38 96       	adiw	r30, 0x08	; 8
     bae:	e4 91       	lpm	r30, Z
     bb0:	e8 87       	std	Y+8, r30	; 0x08
     bb2:	fb 01       	movw	r30, r22
     bb4:	39 96       	adiw	r30, 0x09	; 9
     bb6:	e4 91       	lpm	r30, Z
     bb8:	e9 87       	std	Y+9, r30	; 0x09
     bba:	fb 01       	movw	r30, r22
     bbc:	3a 96       	adiw	r30, 0x0a	; 10
     bbe:	e4 91       	lpm	r30, Z
     bc0:	ea 87       	std	Y+10, r30	; 0x0a
     bc2:	fb 01       	movw	r30, r22
     bc4:	3b 96       	adiw	r30, 0x0b	; 11
     bc6:	e4 91       	lpm	r30, Z
     bc8:	eb 87       	std	Y+11, r30	; 0x0b
     bca:	fb 01       	movw	r30, r22
     bcc:	3c 96       	adiw	r30, 0x0c	; 12
     bce:	e4 91       	lpm	r30, Z
     bd0:	ec 87       	std	Y+12, r30	; 0x0c
     bd2:	fb 01       	movw	r30, r22
     bd4:	3d 96       	adiw	r30, 0x0d	; 13
     bd6:	e4 91       	lpm	r30, Z
     bd8:	ed 87       	std	Y+13, r30	; 0x0d
     bda:	fb 01       	movw	r30, r22
     bdc:	3e 96       	adiw	r30, 0x0e	; 14
     bde:	e4 91       	lpm	r30, Z
     be0:	ee 87       	std	Y+14, r30	; 0x0e
     be2:	fb 01       	movw	r30, r22
     be4:	3f 96       	adiw	r30, 0x0f	; 15
     be6:	e4 91       	lpm	r30, Z
     be8:	ef 87       	std	Y+15, r30	; 0x0f
     bea:	fb 01       	movw	r30, r22
     bec:	70 96       	adiw	r30, 0x10	; 16
     bee:	e4 91       	lpm	r30, Z
     bf0:	e8 8b       	std	Y+16, r30	; 0x10
     bf2:	61 e1       	ldi	r22, 0x11	; 17
     bf4:	c8 01       	movw	r24, r16
     bf6:	0e 94 99 05 	call	0xb32	; 0xb32 <u8g2_font_get_word>
     bfa:	9a 8b       	std	Y+18, r25	; 0x12
     bfc:	89 8b       	std	Y+17, r24	; 0x11
     bfe:	63 e1       	ldi	r22, 0x13	; 19
     c00:	c8 01       	movw	r24, r16
     c02:	0e 94 99 05 	call	0xb32	; 0xb32 <u8g2_font_get_word>
     c06:	9c 8b       	std	Y+20, r25	; 0x14
     c08:	8b 8b       	std	Y+19, r24	; 0x13
     c0a:	65 e1       	ldi	r22, 0x15	; 21
     c0c:	c8 01       	movw	r24, r16
     c0e:	0e 94 99 05 	call	0xb32	; 0xb32 <u8g2_font_get_word>
     c12:	9e 8b       	std	Y+22, r25	; 0x16
     c14:	8d 8b       	std	Y+21, r24	; 0x15
     c16:	df 91       	pop	r29
     c18:	cf 91       	pop	r28
     c1a:	1f 91       	pop	r17
     c1c:	0f 91       	pop	r16
     c1e:	08 95       	ret

00000c20 <u8g2_font_decode_get_unsigned_bits>:
     c20:	dc 01       	movw	r26, r24
     c22:	1a 96       	adiw	r26, 0x0a	; 10
     c24:	4c 91       	ld	r20, X
     c26:	1a 97       	sbiw	r26, 0x0a	; 10
     c28:	ed 91       	ld	r30, X+
     c2a:	fc 91       	ld	r31, X
     c2c:	11 97       	sbiw	r26, 0x01	; 1
     c2e:	24 91       	lpm	r18, Z
     c30:	30 e0       	ldi	r19, 0x00	; 0
     c32:	04 2e       	mov	r0, r20
     c34:	02 c0       	rjmp	.+4      	; 0xc3a <u8g2_font_decode_get_unsigned_bits+0x1a>
     c36:	35 95       	asr	r19
     c38:	27 95       	ror	r18
     c3a:	0a 94       	dec	r0
     c3c:	e2 f7       	brpl	.-8      	; 0xc36 <u8g2_font_decode_get_unsigned_bits+0x16>
     c3e:	84 2f       	mov	r24, r20
     c40:	86 0f       	add	r24, r22
     c42:	88 30       	cpi	r24, 0x08	; 8
     c44:	10 f4       	brcc	.+4      	; 0xc4a <u8g2_font_decode_get_unsigned_bits+0x2a>
     c46:	e2 2f       	mov	r30, r18
     c48:	0d c0       	rjmp	.+26     	; 0xc64 <u8g2_font_decode_get_unsigned_bits+0x44>
     c4a:	31 96       	adiw	r30, 0x01	; 1
     c4c:	11 96       	adiw	r26, 0x01	; 1
     c4e:	fc 93       	st	X, r31
     c50:	ee 93       	st	-X, r30
     c52:	e4 91       	lpm	r30, Z
     c54:	98 e0       	ldi	r25, 0x08	; 8
     c56:	94 1b       	sub	r25, r20
     c58:	01 c0       	rjmp	.+2      	; 0xc5c <u8g2_font_decode_get_unsigned_bits+0x3c>
     c5a:	ee 0f       	add	r30, r30
     c5c:	9a 95       	dec	r25
     c5e:	ea f7       	brpl	.-6      	; 0xc5a <u8g2_font_decode_get_unsigned_bits+0x3a>
     c60:	e2 2b       	or	r30, r18
     c62:	88 50       	subi	r24, 0x08	; 8
     c64:	1a 96       	adiw	r26, 0x0a	; 10
     c66:	8c 93       	st	X, r24
     c68:	81 e0       	ldi	r24, 0x01	; 1
     c6a:	90 e0       	ldi	r25, 0x00	; 0
     c6c:	01 c0       	rjmp	.+2      	; 0xc70 <u8g2_font_decode_get_unsigned_bits+0x50>
     c6e:	88 0f       	add	r24, r24
     c70:	6a 95       	dec	r22
     c72:	ea f7       	brpl	.-6      	; 0xc6e <u8g2_font_decode_get_unsigned_bits+0x4e>
     c74:	81 50       	subi	r24, 0x01	; 1
     c76:	8e 23       	and	r24, r30
     c78:	08 95       	ret

00000c7a <u8g2_font_setup_decode>:
     c7a:	0f 93       	push	r16
     c7c:	1f 93       	push	r17
     c7e:	cf 93       	push	r28
     c80:	df 93       	push	r29
     c82:	8c 01       	movw	r16, r24
     c84:	ec 01       	movw	r28, r24
     c86:	c8 5b       	subi	r28, 0xB8	; 184
     c88:	df 4f       	sbci	r29, 0xFF	; 255
     c8a:	79 83       	std	Y+1, r23	; 0x01
     c8c:	68 83       	st	Y, r22
     c8e:	1a 86       	std	Y+10, r1	; 0x0a
     c90:	fc 01       	movw	r30, r24
     c92:	e5 5a       	subi	r30, 0xA5	; 165
     c94:	ff 4f       	sbci	r31, 0xFF	; 255
     c96:	60 81       	ld	r22, Z
     c98:	ce 01       	movw	r24, r28
     c9a:	0e 94 10 06 	call	0xc20	; 0xc20 <u8g2_font_decode_get_unsigned_bits>
     c9e:	88 87       	std	Y+8, r24	; 0x08
     ca0:	f8 01       	movw	r30, r16
     ca2:	e4 5a       	subi	r30, 0xA4	; 164
     ca4:	ff 4f       	sbci	r31, 0xFF	; 255
     ca6:	60 81       	ld	r22, Z
     ca8:	ce 01       	movw	r24, r28
     caa:	0e 94 10 06 	call	0xc20	; 0xc20 <u8g2_font_decode_get_unsigned_bits>
     cae:	89 87       	std	Y+9, r24	; 0x09
     cb0:	f8 01       	movw	r30, r16
     cb2:	ec 58       	subi	r30, 0x8C	; 140
     cb4:	ff 4f       	sbci	r31, 0xFF	; 255
     cb6:	90 81       	ld	r25, Z
     cb8:	9c 87       	std	Y+12, r25	; 0x0c
     cba:	81 e0       	ldi	r24, 0x01	; 1
     cbc:	91 11       	cpse	r25, r1
     cbe:	80 e0       	ldi	r24, 0x00	; 0
     cc0:	8d 87       	std	Y+13, r24	; 0x0d
     cc2:	df 91       	pop	r29
     cc4:	cf 91       	pop	r28
     cc6:	1f 91       	pop	r17
     cc8:	0f 91       	pop	r16
     cca:	08 95       	ret

00000ccc <u8g2_font_decode_get_signed_bits>:
     ccc:	cf 93       	push	r28
     cce:	c6 2f       	mov	r28, r22
     cd0:	0e 94 10 06 	call	0xc20	; 0xc20 <u8g2_font_decode_get_unsigned_bits>
     cd4:	c1 50       	subi	r28, 0x01	; 1
     cd6:	21 e0       	ldi	r18, 0x01	; 1
     cd8:	30 e0       	ldi	r19, 0x00	; 0
     cda:	01 c0       	rjmp	.+2      	; 0xcde <u8g2_font_decode_get_signed_bits+0x12>
     cdc:	22 0f       	add	r18, r18
     cde:	ca 95       	dec	r28
     ce0:	ea f7       	brpl	.-6      	; 0xcdc <u8g2_font_decode_get_signed_bits+0x10>
     ce2:	82 1b       	sub	r24, r18
     ce4:	cf 91       	pop	r28
     ce6:	08 95       	ret

00000ce8 <u8g2_add_vector_y>:
     ce8:	21 30       	cpi	r18, 0x01	; 1
     cea:	69 f0       	breq	.+26     	; 0xd06 <u8g2_add_vector_y+0x1e>
     cec:	38 f0       	brcs	.+14     	; 0xcfc <u8g2_add_vector_y+0x14>
     cee:	22 30       	cpi	r18, 0x02	; 2
     cf0:	79 f4       	brne	.+30     	; 0xd10 <u8g2_add_vector_y+0x28>
     cf2:	84 1b       	sub	r24, r20
     cf4:	91 09       	sbc	r25, r1
     cf6:	47 fd       	sbrc	r20, 7
     cf8:	93 95       	inc	r25
     cfa:	08 95       	ret
     cfc:	84 0f       	add	r24, r20
     cfe:	91 1d       	adc	r25, r1
     d00:	47 fd       	sbrc	r20, 7
     d02:	9a 95       	dec	r25
     d04:	08 95       	ret
     d06:	86 0f       	add	r24, r22
     d08:	91 1d       	adc	r25, r1
     d0a:	67 fd       	sbrc	r22, 7
     d0c:	9a 95       	dec	r25
     d0e:	08 95       	ret
     d10:	86 1b       	sub	r24, r22
     d12:	91 09       	sbc	r25, r1
     d14:	67 fd       	sbrc	r22, 7
     d16:	93 95       	inc	r25
     d18:	08 95       	ret

00000d1a <u8g2_add_vector_x>:
     d1a:	21 30       	cpi	r18, 0x01	; 1
     d1c:	69 f0       	breq	.+26     	; 0xd38 <u8g2_add_vector_x+0x1e>
     d1e:	38 f0       	brcs	.+14     	; 0xd2e <u8g2_add_vector_x+0x14>
     d20:	22 30       	cpi	r18, 0x02	; 2
     d22:	79 f4       	brne	.+30     	; 0xd42 <u8g2_add_vector_x+0x28>
     d24:	86 1b       	sub	r24, r22
     d26:	91 09       	sbc	r25, r1
     d28:	67 fd       	sbrc	r22, 7
     d2a:	93 95       	inc	r25
     d2c:	08 95       	ret
     d2e:	86 0f       	add	r24, r22
     d30:	91 1d       	adc	r25, r1
     d32:	67 fd       	sbrc	r22, 7
     d34:	9a 95       	dec	r25
     d36:	08 95       	ret
     d38:	84 1b       	sub	r24, r20
     d3a:	91 09       	sbc	r25, r1
     d3c:	47 fd       	sbrc	r20, 7
     d3e:	93 95       	inc	r25
     d40:	08 95       	ret
     d42:	84 0f       	add	r24, r20
     d44:	91 1d       	adc	r25, r1
     d46:	47 fd       	sbrc	r20, 7
     d48:	9a 95       	dec	r25
     d4a:	08 95       	ret

00000d4c <u8g2_font_decode_len>:
     d4c:	3f 92       	push	r3
     d4e:	4f 92       	push	r4
     d50:	5f 92       	push	r5
     d52:	6f 92       	push	r6
     d54:	7f 92       	push	r7
     d56:	8f 92       	push	r8
     d58:	9f 92       	push	r9
     d5a:	af 92       	push	r10
     d5c:	bf 92       	push	r11
     d5e:	cf 92       	push	r12
     d60:	df 92       	push	r13
     d62:	ef 92       	push	r14
     d64:	ff 92       	push	r15
     d66:	0f 93       	push	r16
     d68:	1f 93       	push	r17
     d6a:	cf 93       	push	r28
     d6c:	df 93       	push	r29
     d6e:	7c 01       	movw	r14, r24
     d70:	76 2e       	mov	r7, r22
     d72:	44 2e       	mov	r4, r20
     d74:	ec 01       	movw	r28, r24
     d76:	c8 5b       	subi	r28, 0xB8	; 184
     d78:	df 4f       	sbci	r29, 0xFF	; 255
     d7a:	1e 81       	ldd	r17, Y+6	; 0x06
     d7c:	5f 80       	ldd	r5, Y+7	; 0x07
     d7e:	6c 01       	movw	r12, r24
     d80:	84 e7       	ldi	r24, 0x74	; 116
     d82:	c8 0e       	add	r12, r24
     d84:	d1 1c       	adc	r13, r1
     d86:	68 84       	ldd	r6, Y+8	; 0x08
     d88:	61 1a       	sub	r6, r17
     d8a:	37 2c       	mov	r3, r7
     d8c:	67 14       	cp	r6, r7
     d8e:	08 f4       	brcc	.+2      	; 0xd92 <u8g2_font_decode_len+0x46>
     d90:	36 2c       	mov	r3, r6
     d92:	8c 80       	ldd	r8, Y+4	; 0x04
     d94:	9d 80       	ldd	r9, Y+5	; 0x05
     d96:	0e 85       	ldd	r16, Y+14	; 0x0e
     d98:	20 2f       	mov	r18, r16
     d9a:	45 2d       	mov	r20, r5
     d9c:	61 2f       	mov	r22, r17
     d9e:	8a 81       	ldd	r24, Y+2	; 0x02
     da0:	9b 81       	ldd	r25, Y+3	; 0x03
     da2:	0e 94 8d 06 	call	0xd1a	; 0xd1a <u8g2_add_vector_x>
     da6:	5c 01       	movw	r10, r24
     da8:	20 2f       	mov	r18, r16
     daa:	45 2d       	mov	r20, r5
     dac:	61 2f       	mov	r22, r17
     dae:	c4 01       	movw	r24, r8
     db0:	0e 94 74 06 	call	0xce8	; 0xce8 <u8g2_add_vector_y>
     db4:	ac 01       	movw	r20, r24
     db6:	44 20       	and	r4, r4
     db8:	11 f0       	breq	.+4      	; 0xdbe <u8g2_font_decode_len+0x72>
     dba:	8c 85       	ldd	r24, Y+12	; 0x0c
     dbc:	04 c0       	rjmp	.+8      	; 0xdc6 <u8g2_font_decode_len+0x7a>
     dbe:	8b 85       	ldd	r24, Y+11	; 0x0b
     dc0:	81 11       	cpse	r24, r1
     dc2:	09 c0       	rjmp	.+18     	; 0xdd6 <u8g2_font_decode_len+0x8a>
     dc4:	8d 85       	ldd	r24, Y+13	; 0x0d
     dc6:	f6 01       	movw	r30, r12
     dc8:	80 83       	st	Z, r24
     dca:	23 2d       	mov	r18, r3
     dcc:	30 e0       	ldi	r19, 0x00	; 0
     dce:	b5 01       	movw	r22, r10
     dd0:	c7 01       	movw	r24, r14
     dd2:	0e 94 88 09 	call	0x1310	; 0x1310 <u8g2_DrawHVLine>
     dd6:	76 14       	cp	r7, r6
     dd8:	20 f0       	brcs	.+8      	; 0xde2 <u8g2_font_decode_len+0x96>
     dda:	76 18       	sub	r7, r6
     ddc:	53 94       	inc	r5
     dde:	10 e0       	ldi	r17, 0x00	; 0
     de0:	d2 cf       	rjmp	.-92     	; 0xd86 <u8g2_font_decode_len+0x3a>
     de2:	17 0d       	add	r17, r7
     de4:	1e 83       	std	Y+6, r17	; 0x06
     de6:	5f 82       	std	Y+7, r5	; 0x07
     de8:	df 91       	pop	r29
     dea:	cf 91       	pop	r28
     dec:	1f 91       	pop	r17
     dee:	0f 91       	pop	r16
     df0:	ff 90       	pop	r15
     df2:	ef 90       	pop	r14
     df4:	df 90       	pop	r13
     df6:	cf 90       	pop	r12
     df8:	bf 90       	pop	r11
     dfa:	af 90       	pop	r10
     dfc:	9f 90       	pop	r9
     dfe:	8f 90       	pop	r8
     e00:	7f 90       	pop	r7
     e02:	6f 90       	pop	r6
     e04:	5f 90       	pop	r5
     e06:	4f 90       	pop	r4
     e08:	3f 90       	pop	r3
     e0a:	08 95       	ret

00000e0c <u8g2_font_decode_glyph>:
     e0c:	8f 92       	push	r8
     e0e:	9f 92       	push	r9
     e10:	af 92       	push	r10
     e12:	bf 92       	push	r11
     e14:	cf 92       	push	r12
     e16:	df 92       	push	r13
     e18:	ef 92       	push	r14
     e1a:	ff 92       	push	r15
     e1c:	0f 93       	push	r16
     e1e:	1f 93       	push	r17
     e20:	cf 93       	push	r28
     e22:	df 93       	push	r29
     e24:	7c 01       	movw	r14, r24
     e26:	ec 01       	movw	r28, r24
     e28:	c8 5b       	subi	r28, 0xB8	; 184
     e2a:	df 4f       	sbci	r29, 0xFF	; 255
     e2c:	0e 94 3d 06 	call	0xc7a	; 0xc7a <u8g2_font_setup_decode>
     e30:	f7 01       	movw	r30, r14
     e32:	ef 5a       	subi	r30, 0xAF	; 175
     e34:	ff 4f       	sbci	r31, 0xFF	; 255
     e36:	b0 80       	ld	r11, Z
     e38:	3c 96       	adiw	r30, 0x0c	; 12
     e3a:	60 81       	ld	r22, Z
     e3c:	ce 01       	movw	r24, r28
     e3e:	0e 94 66 06 	call	0xccc	; 0xccc <u8g2_font_decode_get_signed_bits>
     e42:	88 2e       	mov	r8, r24
     e44:	f7 01       	movw	r30, r14
     e46:	e2 5a       	subi	r30, 0xA2	; 162
     e48:	ff 4f       	sbci	r31, 0xFF	; 255
     e4a:	60 81       	ld	r22, Z
     e4c:	ce 01       	movw	r24, r28
     e4e:	0e 94 66 06 	call	0xccc	; 0xccc <u8g2_font_decode_get_signed_bits>
     e52:	08 2f       	mov	r16, r24
     e54:	f7 01       	movw	r30, r14
     e56:	e1 5a       	subi	r30, 0xA1	; 161
     e58:	ff 4f       	sbci	r31, 0xFF	; 255
     e5a:	60 81       	ld	r22, Z
     e5c:	ce 01       	movw	r24, r28
     e5e:	0e 94 66 06 	call	0xccc	; 0xccc <u8g2_font_decode_get_signed_bits>
     e62:	a8 2e       	mov	r10, r24
     e64:	98 84       	ldd	r9, Y+8	; 0x08
     e66:	19 14       	cp	r1, r9
     e68:	0c f0       	brlt	.+2      	; 0xe6c <u8g2_font_decode_glyph+0x60>
     e6a:	97 c0       	rjmp	.+302    	; 0xf9a <u8g2_font_decode_glyph+0x18e>
     e6c:	1e 85       	ldd	r17, Y+14	; 0x0e
     e6e:	0b 0d       	add	r16, r11
     e70:	01 95       	neg	r16
     e72:	21 2f       	mov	r18, r17
     e74:	40 2f       	mov	r20, r16
     e76:	68 2d       	mov	r22, r8
     e78:	8a 81       	ldd	r24, Y+2	; 0x02
     e7a:	9b 81       	ldd	r25, Y+3	; 0x03
     e7c:	0e 94 8d 06 	call	0xd1a	; 0xd1a <u8g2_add_vector_x>
     e80:	6c 01       	movw	r12, r24
     e82:	9b 83       	std	Y+3, r25	; 0x03
     e84:	8a 83       	std	Y+2, r24	; 0x02
     e86:	21 2f       	mov	r18, r17
     e88:	40 2f       	mov	r20, r16
     e8a:	68 2d       	mov	r22, r8
     e8c:	8c 81       	ldd	r24, Y+4	; 0x04
     e8e:	9d 81       	ldd	r25, Y+5	; 0x05
     e90:	0e 94 74 06 	call	0xce8	; 0xce8 <u8g2_add_vector_y>
     e94:	9d 83       	std	Y+5, r25	; 0x05
     e96:	8c 83       	std	Y+4, r24	; 0x04
     e98:	11 30       	cpi	r17, 0x01	; 1
     e9a:	11 f1       	breq	.+68     	; 0xee0 <u8g2_font_decode_glyph+0xd4>
     e9c:	b0 f0       	brcs	.+44     	; 0xeca <u8g2_font_decode_glyph+0xbe>
     e9e:	12 30       	cpi	r17, 0x02	; 2
     ea0:	81 f1       	breq	.+96     	; 0xf02 <u8g2_font_decode_glyph+0xf6>
     ea2:	13 30       	cpi	r17, 0x03	; 3
     ea4:	09 f0       	breq	.+2      	; 0xea8 <u8g2_font_decode_glyph+0x9c>
     ea6:	43 c0       	rjmp	.+134    	; 0xf2e <u8g2_font_decode_glyph+0x122>
     ea8:	96 01       	movw	r18, r12
     eaa:	2b 0d       	add	r18, r11
     eac:	31 1d       	adc	r19, r1
     eae:	b7 fc       	sbrc	r11, 7
     eb0:	3a 95       	dec	r19
     eb2:	41 e0       	ldi	r20, 0x01	; 1
     eb4:	50 e0       	ldi	r21, 0x00	; 0
     eb6:	49 19       	sub	r20, r9
     eb8:	51 09       	sbc	r21, r1
     eba:	97 fc       	sbrc	r9, 7
     ebc:	53 95       	inc	r21
     ebe:	8c 01       	movw	r16, r24
     ec0:	0f 5f       	subi	r16, 0xFF	; 255
     ec2:	1f 4f       	sbci	r17, 0xFF	; 255
     ec4:	84 0f       	add	r24, r20
     ec6:	95 1f       	adc	r25, r21
     ec8:	34 c0       	rjmp	.+104    	; 0xf32 <u8g2_font_decode_glyph+0x126>
     eca:	96 01       	movw	r18, r12
     ecc:	29 0d       	add	r18, r9
     ece:	31 1d       	adc	r19, r1
     ed0:	97 fc       	sbrc	r9, 7
     ed2:	3a 95       	dec	r19
     ed4:	8c 01       	movw	r16, r24
     ed6:	0b 0d       	add	r16, r11
     ed8:	11 1d       	adc	r17, r1
     eda:	b7 fc       	sbrc	r11, 7
     edc:	1a 95       	dec	r17
     ede:	29 c0       	rjmp	.+82     	; 0xf32 <u8g2_font_decode_glyph+0x126>
     ee0:	41 e0       	ldi	r20, 0x01	; 1
     ee2:	50 e0       	ldi	r21, 0x00	; 0
     ee4:	4b 19       	sub	r20, r11
     ee6:	51 09       	sbc	r21, r1
     ee8:	b7 fc       	sbrc	r11, 7
     eea:	53 95       	inc	r21
     eec:	96 01       	movw	r18, r12
     eee:	2f 5f       	subi	r18, 0xFF	; 255
     ef0:	3f 4f       	sbci	r19, 0xFF	; 255
     ef2:	8c 01       	movw	r16, r24
     ef4:	09 0d       	add	r16, r9
     ef6:	11 1d       	adc	r17, r1
     ef8:	97 fc       	sbrc	r9, 7
     efa:	1a 95       	dec	r17
     efc:	c4 0e       	add	r12, r20
     efe:	d5 1e       	adc	r13, r21
     f00:	18 c0       	rjmp	.+48     	; 0xf32 <u8g2_font_decode_glyph+0x126>
     f02:	41 e0       	ldi	r20, 0x01	; 1
     f04:	50 e0       	ldi	r21, 0x00	; 0
     f06:	ba 01       	movw	r22, r20
     f08:	69 19       	sub	r22, r9
     f0a:	71 09       	sbc	r23, r1
     f0c:	97 fc       	sbrc	r9, 7
     f0e:	73 95       	inc	r23
     f10:	96 01       	movw	r18, r12
     f12:	2f 5f       	subi	r18, 0xFF	; 255
     f14:	3f 4f       	sbci	r19, 0xFF	; 255
     f16:	4b 19       	sub	r20, r11
     f18:	51 09       	sbc	r21, r1
     f1a:	b7 fc       	sbrc	r11, 7
     f1c:	53 95       	inc	r21
     f1e:	8c 01       	movw	r16, r24
     f20:	0f 5f       	subi	r16, 0xFF	; 255
     f22:	1f 4f       	sbci	r17, 0xFF	; 255
     f24:	84 0f       	add	r24, r20
     f26:	95 1f       	adc	r25, r21
     f28:	c6 0e       	add	r12, r22
     f2a:	d7 1e       	adc	r13, r23
     f2c:	02 c0       	rjmp	.+4      	; 0xf32 <u8g2_font_decode_glyph+0x126>
     f2e:	8c 01       	movw	r16, r24
     f30:	96 01       	movw	r18, r12
     f32:	ac 01       	movw	r20, r24
     f34:	b6 01       	movw	r22, r12
     f36:	c7 01       	movw	r24, r14
     f38:	0e 94 39 0a 	call	0x1472	; 0x1472 <u8g2_IsIntersection>
     f3c:	88 23       	and	r24, r24
     f3e:	69 f1       	breq	.+90     	; 0xf9a <u8g2_font_decode_glyph+0x18e>
     f40:	1e 82       	std	Y+6, r1	; 0x06
     f42:	1f 82       	std	Y+7, r1	; 0x07
     f44:	87 01       	movw	r16, r14
     f46:	07 5a       	subi	r16, 0xA7	; 167
     f48:	1f 4f       	sbci	r17, 0xFF	; 255
     f4a:	67 01       	movw	r12, r14
     f4c:	8a e5       	ldi	r24, 0x5A	; 90
     f4e:	c8 0e       	add	r12, r24
     f50:	d1 1c       	adc	r13, r1
     f52:	f8 01       	movw	r30, r16
     f54:	60 81       	ld	r22, Z
     f56:	ce 01       	movw	r24, r28
     f58:	0e 94 10 06 	call	0xc20	; 0xc20 <u8g2_font_decode_get_unsigned_bits>
     f5c:	88 2e       	mov	r8, r24
     f5e:	f6 01       	movw	r30, r12
     f60:	60 81       	ld	r22, Z
     f62:	ce 01       	movw	r24, r28
     f64:	0e 94 10 06 	call	0xc20	; 0xc20 <u8g2_font_decode_get_unsigned_bits>
     f68:	98 2e       	mov	r9, r24
     f6a:	40 e0       	ldi	r20, 0x00	; 0
     f6c:	68 2d       	mov	r22, r8
     f6e:	c7 01       	movw	r24, r14
     f70:	0e 94 a6 06 	call	0xd4c	; 0xd4c <u8g2_font_decode_len>
     f74:	41 e0       	ldi	r20, 0x01	; 1
     f76:	69 2d       	mov	r22, r9
     f78:	c7 01       	movw	r24, r14
     f7a:	0e 94 a6 06 	call	0xd4c	; 0xd4c <u8g2_font_decode_len>
     f7e:	61 e0       	ldi	r22, 0x01	; 1
     f80:	ce 01       	movw	r24, r28
     f82:	0e 94 10 06 	call	0xc20	; 0xc20 <u8g2_font_decode_get_unsigned_bits>
     f86:	81 11       	cpse	r24, r1
     f88:	f0 cf       	rjmp	.-32     	; 0xf6a <u8g2_font_decode_glyph+0x15e>
     f8a:	8f 81       	ldd	r24, Y+7	; 0x07
     f8c:	8b 15       	cp	r24, r11
     f8e:	0c f3       	brlt	.-62     	; 0xf52 <u8g2_font_decode_glyph+0x146>
     f90:	f7 01       	movw	r30, r14
     f92:	ec 58       	subi	r30, 0x8C	; 140
     f94:	ff 4f       	sbci	r31, 0xFF	; 255
     f96:	8c 85       	ldd	r24, Y+12	; 0x0c
     f98:	80 83       	st	Z, r24
     f9a:	8a 2d       	mov	r24, r10
     f9c:	df 91       	pop	r29
     f9e:	cf 91       	pop	r28
     fa0:	1f 91       	pop	r17
     fa2:	0f 91       	pop	r16
     fa4:	ff 90       	pop	r15
     fa6:	ef 90       	pop	r14
     fa8:	df 90       	pop	r13
     faa:	cf 90       	pop	r12
     fac:	bf 90       	pop	r11
     fae:	af 90       	pop	r10
     fb0:	9f 90       	pop	r9
     fb2:	8f 90       	pop	r8
     fb4:	08 95       	ret

00000fb6 <u8g2_font_get_glyph_data>:
     fb6:	ef 92       	push	r14
     fb8:	ff 92       	push	r15
     fba:	0f 93       	push	r16
     fbc:	1f 93       	push	r17
     fbe:	cf 93       	push	r28
     fc0:	df 93       	push	r29
     fc2:	fc 01       	movw	r30, r24
     fc4:	ec 5b       	subi	r30, 0xBC	; 188
     fc6:	ff 4f       	sbci	r31, 0xFF	; 255
     fc8:	20 81       	ld	r18, Z
     fca:	31 81       	ldd	r19, Z+1	; 0x01
     fcc:	29 5e       	subi	r18, 0xE9	; 233
     fce:	3f 4f       	sbci	r19, 0xFF	; 255
     fd0:	6f 3f       	cpi	r22, 0xFF	; 255
     fd2:	71 05       	cpc	r23, r1
     fd4:	09 f0       	breq	.+2      	; 0xfd8 <u8g2_font_get_glyph_data+0x22>
     fd6:	18 f5       	brcc	.+70     	; 0x101e <u8g2_font_get_glyph_data+0x68>
     fd8:	61 36       	cpi	r22, 0x61	; 97
     fda:	71 05       	cpc	r23, r1
     fdc:	10 f0       	brcs	.+4      	; 0xfe2 <u8g2_font_get_glyph_data+0x2c>
     fde:	b6 96       	adiw	r30, 0x26	; 38
     fe0:	06 c0       	rjmp	.+12     	; 0xfee <u8g2_font_get_glyph_data+0x38>
     fe2:	61 34       	cpi	r22, 0x41	; 65
     fe4:	71 05       	cpc	r23, r1
     fe6:	38 f0       	brcs	.+14     	; 0xff6 <u8g2_font_get_glyph_data+0x40>
     fe8:	fc 01       	movw	r30, r24
     fea:	e8 59       	subi	r30, 0x98	; 152
     fec:	ff 4f       	sbci	r31, 0xFF	; 255
     fee:	80 81       	ld	r24, Z
     ff0:	91 81       	ldd	r25, Z+1	; 0x01
     ff2:	28 0f       	add	r18, r24
     ff4:	39 1f       	adc	r19, r25
     ff6:	c9 01       	movw	r24, r18
     ff8:	01 96       	adiw	r24, 0x01	; 1
     ffa:	fc 01       	movw	r30, r24
     ffc:	44 91       	lpm	r20, Z
     ffe:	44 23       	and	r20, r20
    1000:	09 f4       	brne	.+2      	; 0x1004 <u8g2_font_get_glyph_data+0x4e>
    1002:	3c c0       	rjmp	.+120    	; 0x107c <u8g2_font_get_glyph_data+0xc6>
    1004:	f9 01       	movw	r30, r18
    1006:	44 91       	lpm	r20, Z
    1008:	50 e0       	ldi	r21, 0x00	; 0
    100a:	64 17       	cp	r22, r20
    100c:	75 07       	cpc	r23, r21
    100e:	11 f4       	brne	.+4      	; 0x1014 <u8g2_font_get_glyph_data+0x5e>
    1010:	01 96       	adiw	r24, 0x01	; 1
    1012:	36 c0       	rjmp	.+108    	; 0x1080 <u8g2_font_get_glyph_data+0xca>
    1014:	fc 01       	movw	r30, r24
    1016:	84 91       	lpm	r24, Z
    1018:	28 0f       	add	r18, r24
    101a:	31 1d       	adc	r19, r1
    101c:	ec cf       	rjmp	.-40     	; 0xff6 <u8g2_font_get_glyph_data+0x40>
    101e:	8b 01       	movw	r16, r22
    1020:	fc 01       	movw	r30, r24
    1022:	e4 59       	subi	r30, 0x94	; 148
    1024:	ff 4f       	sbci	r31, 0xFF	; 255
    1026:	c0 81       	ld	r28, Z
    1028:	d1 81       	ldd	r29, Z+1	; 0x01
    102a:	c2 0f       	add	r28, r18
    102c:	d3 1f       	adc	r29, r19
    102e:	7e 01       	movw	r14, r28
    1030:	60 e0       	ldi	r22, 0x00	; 0
    1032:	c7 01       	movw	r24, r14
    1034:	0e 94 99 05 	call	0xb32	; 0xb32 <u8g2_font_get_word>
    1038:	c8 0f       	add	r28, r24
    103a:	d9 1f       	adc	r29, r25
    103c:	62 e0       	ldi	r22, 0x02	; 2
    103e:	c7 01       	movw	r24, r14
    1040:	0e 94 99 05 	call	0xb32	; 0xb32 <u8g2_font_get_word>
    1044:	f4 e0       	ldi	r31, 0x04	; 4
    1046:	ef 0e       	add	r14, r31
    1048:	f1 1c       	adc	r15, r1
    104a:	80 17       	cp	r24, r16
    104c:	91 07       	cpc	r25, r17
    104e:	80 f3       	brcs	.-32     	; 0x1030 <u8g2_font_get_glyph_data+0x7a>
    1050:	fe 01       	movw	r30, r28
    1052:	84 91       	lpm	r24, Z
    1054:	90 e0       	ldi	r25, 0x00	; 0
    1056:	98 2f       	mov	r25, r24
    1058:	88 27       	eor	r24, r24
    105a:	31 96       	adiw	r30, 0x01	; 1
    105c:	e4 91       	lpm	r30, Z
    105e:	8e 2b       	or	r24, r30
    1060:	00 97       	sbiw	r24, 0x00	; 0
    1062:	61 f0       	breq	.+24     	; 0x107c <u8g2_font_get_glyph_data+0xc6>
    1064:	08 17       	cp	r16, r24
    1066:	19 07       	cpc	r17, r25
    1068:	19 f4       	brne	.+6      	; 0x1070 <u8g2_font_get_glyph_data+0xba>
    106a:	ce 01       	movw	r24, r28
    106c:	03 96       	adiw	r24, 0x03	; 3
    106e:	08 c0       	rjmp	.+16     	; 0x1080 <u8g2_font_get_glyph_data+0xca>
    1070:	fe 01       	movw	r30, r28
    1072:	32 96       	adiw	r30, 0x02	; 2
    1074:	e4 91       	lpm	r30, Z
    1076:	ce 0f       	add	r28, r30
    1078:	d1 1d       	adc	r29, r1
    107a:	ea cf       	rjmp	.-44     	; 0x1050 <u8g2_font_get_glyph_data+0x9a>
    107c:	80 e0       	ldi	r24, 0x00	; 0
    107e:	90 e0       	ldi	r25, 0x00	; 0
    1080:	df 91       	pop	r29
    1082:	cf 91       	pop	r28
    1084:	1f 91       	pop	r17
    1086:	0f 91       	pop	r16
    1088:	ff 90       	pop	r15
    108a:	ef 90       	pop	r14
    108c:	08 95       	ret

0000108e <u8g2_DrawGlyph>:
    108e:	cf 92       	push	r12
    1090:	df 92       	push	r13
    1092:	ef 92       	push	r14
    1094:	ff 92       	push	r15
    1096:	0f 93       	push	r16
    1098:	1f 93       	push	r17
    109a:	cf 93       	push	r28
    109c:	df 93       	push	r29
    109e:	ec 01       	movw	r28, r24
    10a0:	7b 01       	movw	r14, r22
    10a2:	8a 01       	movw	r16, r20
    10a4:	69 01       	movw	r12, r18
    10a6:	fc 01       	movw	r30, r24
    10a8:	ea 5a       	subi	r30, 0xAA	; 170
    10aa:	ff 4f       	sbci	r31, 0xFF	; 255
    10ac:	80 81       	ld	r24, Z
    10ae:	81 30       	cpi	r24, 0x01	; 1
    10b0:	d9 f0       	breq	.+54     	; 0x10e8 <u8g2_DrawGlyph+0x5a>
    10b2:	78 f0       	brcs	.+30     	; 0x10d2 <u8g2_DrawGlyph+0x44>
    10b4:	82 30       	cpi	r24, 0x02	; 2
    10b6:	19 f1       	breq	.+70     	; 0x10fe <u8g2_DrawGlyph+0x70>
    10b8:	83 30       	cpi	r24, 0x03	; 3
    10ba:	59 f5       	brne	.+86     	; 0x1112 <u8g2_DrawGlyph+0x84>
    10bc:	fe 01       	movw	r30, r28
    10be:	ea 5b       	subi	r30, 0xBA	; 186
    10c0:	ff 4f       	sbci	r31, 0xFF	; 255
    10c2:	01 90       	ld	r0, Z+
    10c4:	f0 81       	ld	r31, Z
    10c6:	e0 2d       	mov	r30, r0
    10c8:	ce 01       	movw	r24, r28
    10ca:	09 95       	icall
    10cc:	e8 0e       	add	r14, r24
    10ce:	f9 1e       	adc	r15, r25
    10d0:	20 c0       	rjmp	.+64     	; 0x1112 <u8g2_DrawGlyph+0x84>
    10d2:	fe 01       	movw	r30, r28
    10d4:	ea 5b       	subi	r30, 0xBA	; 186
    10d6:	ff 4f       	sbci	r31, 0xFF	; 255
    10d8:	01 90       	ld	r0, Z+
    10da:	f0 81       	ld	r31, Z
    10dc:	e0 2d       	mov	r30, r0
    10de:	ce 01       	movw	r24, r28
    10e0:	09 95       	icall
    10e2:	08 0f       	add	r16, r24
    10e4:	19 1f       	adc	r17, r25
    10e6:	15 c0       	rjmp	.+42     	; 0x1112 <u8g2_DrawGlyph+0x84>
    10e8:	fe 01       	movw	r30, r28
    10ea:	ea 5b       	subi	r30, 0xBA	; 186
    10ec:	ff 4f       	sbci	r31, 0xFF	; 255
    10ee:	01 90       	ld	r0, Z+
    10f0:	f0 81       	ld	r31, Z
    10f2:	e0 2d       	mov	r30, r0
    10f4:	ce 01       	movw	r24, r28
    10f6:	09 95       	icall
    10f8:	e8 1a       	sub	r14, r24
    10fa:	f9 0a       	sbc	r15, r25
    10fc:	0a c0       	rjmp	.+20     	; 0x1112 <u8g2_DrawGlyph+0x84>
    10fe:	fe 01       	movw	r30, r28
    1100:	ea 5b       	subi	r30, 0xBA	; 186
    1102:	ff 4f       	sbci	r31, 0xFF	; 255
    1104:	01 90       	ld	r0, Z+
    1106:	f0 81       	ld	r31, Z
    1108:	e0 2d       	mov	r30, r0
    110a:	ce 01       	movw	r24, r28
    110c:	09 95       	icall
    110e:	08 1b       	sub	r16, r24
    1110:	19 0b       	sbc	r17, r25
    1112:	fe 01       	movw	r30, r28
    1114:	e6 5b       	subi	r30, 0xB6	; 182
    1116:	ff 4f       	sbci	r31, 0xFF	; 255
    1118:	f1 82       	std	Z+1, r15	; 0x01
    111a:	e0 82       	st	Z, r14
    111c:	32 96       	adiw	r30, 0x02	; 2
    111e:	11 83       	std	Z+1, r17	; 0x01
    1120:	00 83       	st	Z, r16
    1122:	b6 01       	movw	r22, r12
    1124:	ce 01       	movw	r24, r28
    1126:	0e 94 db 07 	call	0xfb6	; 0xfb6 <u8g2_font_get_glyph_data>
    112a:	00 97       	sbiw	r24, 0x00	; 0
    112c:	41 f0       	breq	.+16     	; 0x113e <u8g2_DrawGlyph+0xb0>
    112e:	bc 01       	movw	r22, r24
    1130:	ce 01       	movw	r24, r28
    1132:	0e 94 06 07 	call	0xe0c	; 0xe0c <u8g2_font_decode_glyph>
    1136:	08 2e       	mov	r0, r24
    1138:	00 0c       	add	r0, r0
    113a:	99 0b       	sbc	r25, r25
    113c:	02 c0       	rjmp	.+4      	; 0x1142 <u8g2_DrawGlyph+0xb4>
    113e:	80 e0       	ldi	r24, 0x00	; 0
    1140:	90 e0       	ldi	r25, 0x00	; 0
    1142:	df 91       	pop	r29
    1144:	cf 91       	pop	r28
    1146:	1f 91       	pop	r17
    1148:	0f 91       	pop	r16
    114a:	ff 90       	pop	r15
    114c:	ef 90       	pop	r14
    114e:	df 90       	pop	r13
    1150:	cf 90       	pop	r12
    1152:	08 95       	ret

00001154 <u8g2_draw_string>:
    1154:	8f 92       	push	r8
    1156:	9f 92       	push	r9
    1158:	af 92       	push	r10
    115a:	bf 92       	push	r11
    115c:	cf 92       	push	r12
    115e:	df 92       	push	r13
    1160:	ef 92       	push	r14
    1162:	ff 92       	push	r15
    1164:	0f 93       	push	r16
    1166:	1f 93       	push	r17
    1168:	cf 93       	push	r28
    116a:	df 93       	push	r29
    116c:	ec 01       	movw	r28, r24
    116e:	8b 01       	movw	r16, r22
    1170:	7a 01       	movw	r14, r20
    1172:	59 01       	movw	r10, r18
    1174:	0e 94 e2 0b 	call	0x17c4	; 0x17c4 <u8x8_utf8_init>
    1178:	65 01       	movw	r12, r10
    117a:	a1 2c       	mov	r10, r1
    117c:	b1 2c       	mov	r11, r1
    117e:	4e 01       	movw	r8, r28
    1180:	26 e5       	ldi	r18, 0x56	; 86
    1182:	82 0e       	add	r8, r18
    1184:	91 1c       	adc	r9, r1
    1186:	f6 01       	movw	r30, r12
    1188:	61 91       	ld	r22, Z+
    118a:	6f 01       	movw	r12, r30
    118c:	ea 81       	ldd	r30, Y+2	; 0x02
    118e:	fb 81       	ldd	r31, Y+3	; 0x03
    1190:	ce 01       	movw	r24, r28
    1192:	09 95       	icall
    1194:	8f 3f       	cpi	r24, 0xFF	; 255
    1196:	ff ef       	ldi	r31, 0xFF	; 255
    1198:	9f 07       	cpc	r25, r31
    119a:	09 f1       	breq	.+66     	; 0x11de <u8g2_draw_string+0x8a>
    119c:	8e 3f       	cpi	r24, 0xFE	; 254
    119e:	2f ef       	ldi	r18, 0xFF	; 255
    11a0:	92 07       	cpc	r25, r18
    11a2:	89 f3       	breq	.-30     	; 0x1186 <u8g2_draw_string+0x32>
    11a4:	9c 01       	movw	r18, r24
    11a6:	a7 01       	movw	r20, r14
    11a8:	b8 01       	movw	r22, r16
    11aa:	ce 01       	movw	r24, r28
    11ac:	0e 94 47 08 	call	0x108e	; 0x108e <u8g2_DrawGlyph>
    11b0:	f4 01       	movw	r30, r8
    11b2:	20 81       	ld	r18, Z
    11b4:	21 30       	cpi	r18, 0x01	; 1
    11b6:	59 f0       	breq	.+22     	; 0x11ce <u8g2_draw_string+0x7a>
    11b8:	38 f0       	brcs	.+14     	; 0x11c8 <u8g2_draw_string+0x74>
    11ba:	22 30       	cpi	r18, 0x02	; 2
    11bc:	59 f0       	breq	.+22     	; 0x11d4 <u8g2_draw_string+0x80>
    11be:	23 30       	cpi	r18, 0x03	; 3
    11c0:	59 f4       	brne	.+22     	; 0x11d8 <u8g2_draw_string+0x84>
    11c2:	e8 1a       	sub	r14, r24
    11c4:	f9 0a       	sbc	r15, r25
    11c6:	08 c0       	rjmp	.+16     	; 0x11d8 <u8g2_draw_string+0x84>
    11c8:	08 0f       	add	r16, r24
    11ca:	19 1f       	adc	r17, r25
    11cc:	05 c0       	rjmp	.+10     	; 0x11d8 <u8g2_draw_string+0x84>
    11ce:	e8 0e       	add	r14, r24
    11d0:	f9 1e       	adc	r15, r25
    11d2:	02 c0       	rjmp	.+4      	; 0x11d8 <u8g2_draw_string+0x84>
    11d4:	08 1b       	sub	r16, r24
    11d6:	19 0b       	sbc	r17, r25
    11d8:	a8 0e       	add	r10, r24
    11da:	b9 1e       	adc	r11, r25
    11dc:	d4 cf       	rjmp	.-88     	; 0x1186 <u8g2_draw_string+0x32>
    11de:	c5 01       	movw	r24, r10
    11e0:	df 91       	pop	r29
    11e2:	cf 91       	pop	r28
    11e4:	1f 91       	pop	r17
    11e6:	0f 91       	pop	r16
    11e8:	ff 90       	pop	r15
    11ea:	ef 90       	pop	r14
    11ec:	df 90       	pop	r13
    11ee:	cf 90       	pop	r12
    11f0:	bf 90       	pop	r11
    11f2:	af 90       	pop	r10
    11f4:	9f 90       	pop	r9
    11f6:	8f 90       	pop	r8
    11f8:	08 95       	ret

000011fa <u8g2_DrawStr>:
    11fa:	e8 ed       	ldi	r30, 0xD8	; 216
    11fc:	fb e0       	ldi	r31, 0x0B	; 11
    11fe:	dc 01       	movw	r26, r24
    1200:	13 96       	adiw	r26, 0x03	; 3
    1202:	fc 93       	st	X, r31
    1204:	ee 93       	st	-X, r30
    1206:	12 97       	sbiw	r26, 0x02	; 2
    1208:	0c 94 aa 08 	jmp	0x1154	; 0x1154 <u8g2_draw_string>

0000120c <u8g2_UpdateRefHeight>:
    120c:	cf 93       	push	r28
    120e:	df 93       	push	r29
    1210:	fc 01       	movw	r30, r24
    1212:	ec 5b       	subi	r30, 0xBC	; 188
    1214:	ff 4f       	sbci	r31, 0xFF	; 255
    1216:	20 81       	ld	r18, Z
    1218:	31 81       	ldd	r19, Z+1	; 0x01
    121a:	23 2b       	or	r18, r19
    121c:	c1 f1       	breq	.+112    	; 0x128e <u8g2_UpdateRefHeight+0x82>
    121e:	b0 96       	adiw	r30, 0x20	; 32
    1220:	20 81       	ld	r18, Z
    1222:	dc 01       	movw	r26, r24
    1224:	a0 59       	subi	r26, 0x90	; 144
    1226:	bf 4f       	sbci	r27, 0xFF	; 255
    1228:	2c 93       	st	X, r18
    122a:	31 96       	adiw	r30, 0x01	; 1
    122c:	50 81       	ld	r21, Z
    122e:	3c 96       	adiw	r30, 0x0c	; 12
    1230:	50 83       	st	Z, r21
    1232:	ec 01       	movw	r28, r24
    1234:	c1 59       	subi	r28, 0x91	; 145
    1236:	df 4f       	sbci	r29, 0xFF	; 255
    1238:	38 81       	ld	r19, Y
    123a:	33 23       	and	r19, r19
    123c:	41 f1       	breq	.+80     	; 0x128e <u8g2_UpdateRefHeight+0x82>
    123e:	31 30       	cpi	r19, 0x01	; 1
    1240:	69 f4       	brne	.+26     	; 0x125c <u8g2_UpdateRefHeight+0x50>
    1242:	29 97       	sbiw	r28, 0x09	; 9
    1244:	38 81       	ld	r19, Y
    1246:	23 17       	cp	r18, r19
    1248:	0c f4       	brge	.+2      	; 0x124c <u8g2_UpdateRefHeight+0x40>
    124a:	3c 93       	st	X, r19
    124c:	dc 01       	movw	r26, r24
    124e:	a9 59       	subi	r26, 0x99	; 153
    1250:	bf 4f       	sbci	r27, 0xFF	; 255
    1252:	8c 91       	ld	r24, X
    1254:	85 17       	cp	r24, r21
    1256:	dc f4       	brge	.+54     	; 0x128e <u8g2_UpdateRefHeight+0x82>
    1258:	80 83       	st	Z, r24
    125a:	19 c0       	rjmp	.+50     	; 0x128e <u8g2_UpdateRefHeight+0x82>
    125c:	ec 01       	movw	r28, r24
    125e:	cf 59       	subi	r28, 0x9F	; 159
    1260:	df 4f       	sbci	r29, 0xFF	; 255
    1262:	48 81       	ld	r20, Y
    1264:	22 96       	adiw	r28, 0x02	; 2
    1266:	38 81       	ld	r19, Y
    1268:	82 2f       	mov	r24, r18
    126a:	22 0f       	add	r18, r18
    126c:	99 0b       	sbc	r25, r25
    126e:	63 2f       	mov	r22, r19
    1270:	03 2e       	mov	r0, r19
    1272:	00 0c       	add	r0, r0
    1274:	77 0b       	sbc	r23, r23
    1276:	64 0f       	add	r22, r20
    1278:	71 1d       	adc	r23, r1
    127a:	47 fd       	sbrc	r20, 7
    127c:	7a 95       	dec	r23
    127e:	86 17       	cp	r24, r22
    1280:	97 07       	cpc	r25, r23
    1282:	14 f4       	brge	.+4      	; 0x1288 <u8g2_UpdateRefHeight+0x7c>
    1284:	43 0f       	add	r20, r19
    1286:	4c 93       	st	X, r20
    1288:	35 17       	cp	r19, r21
    128a:	0c f4       	brge	.+2      	; 0x128e <u8g2_UpdateRefHeight+0x82>
    128c:	30 83       	st	Z, r19
    128e:	df 91       	pop	r29
    1290:	cf 91       	pop	r28
    1292:	08 95       	ret

00001294 <u8g2_SetFontRefHeightText>:
    1294:	fc 01       	movw	r30, r24
    1296:	e1 59       	subi	r30, 0x91	; 145
    1298:	ff 4f       	sbci	r31, 0xFF	; 255
    129a:	10 82       	st	Z, r1
    129c:	0c 94 06 09 	jmp	0x120c	; 0x120c <u8g2_UpdateRefHeight>

000012a0 <u8g2_SetFontPosBaseline>:
    12a0:	8a 5b       	subi	r24, 0xBA	; 186
    12a2:	9f 4f       	sbci	r25, 0xFF	; 255
    12a4:	25 ea       	ldi	r18, 0xA5	; 165
    12a6:	35 e0       	ldi	r19, 0x05	; 5
    12a8:	fc 01       	movw	r30, r24
    12aa:	31 83       	std	Z+1, r19	; 0x01
    12ac:	20 83       	st	Z, r18
    12ae:	08 95       	ret

000012b0 <u8g2_SetFontPosTop>:
    12b0:	8a 5b       	subi	r24, 0xBA	; 186
    12b2:	9f 4f       	sbci	r25, 0xFF	; 255
    12b4:	28 ea       	ldi	r18, 0xA8	; 168
    12b6:	35 e0       	ldi	r19, 0x05	; 5
    12b8:	fc 01       	movw	r30, r24
    12ba:	31 83       	std	Z+1, r19	; 0x01
    12bc:	20 83       	st	Z, r18
    12be:	08 95       	ret

000012c0 <u8g2_SetFont>:
    12c0:	cf 93       	push	r28
    12c2:	df 93       	push	r29
    12c4:	fc 01       	movw	r30, r24
    12c6:	ec 5b       	subi	r30, 0xBC	; 188
    12c8:	ff 4f       	sbci	r31, 0xFF	; 255
    12ca:	20 81       	ld	r18, Z
    12cc:	31 81       	ldd	r19, Z+1	; 0x01
    12ce:	26 17       	cp	r18, r22
    12d0:	37 07       	cpc	r19, r23
    12d2:	61 f0       	breq	.+24     	; 0x12ec <u8g2_SetFont+0x2c>
    12d4:	ec 01       	movw	r28, r24
    12d6:	71 83       	std	Z+1, r23	; 0x01
    12d8:	60 83       	st	Z, r22
    12da:	89 5a       	subi	r24, 0xA9	; 169
    12dc:	9f 4f       	sbci	r25, 0xFF	; 255
    12de:	0e 94 b1 05 	call	0xb62	; 0xb62 <u8g2_read_font_info>
    12e2:	ce 01       	movw	r24, r28
    12e4:	df 91       	pop	r29
    12e6:	cf 91       	pop	r28
    12e8:	0c 94 06 09 	jmp	0x120c	; 0x120c <u8g2_UpdateRefHeight>
    12ec:	df 91       	pop	r29
    12ee:	cf 91       	pop	r28
    12f0:	08 95       	ret

000012f2 <u8g2_draw_hv_line_2dir>:
    12f2:	0f 93       	push	r16
    12f4:	dc 01       	movw	r26, r24
    12f6:	9a 96       	adiw	r26, 0x2a	; 42
    12f8:	ed 91       	ld	r30, X+
    12fa:	fc 91       	ld	r31, X
    12fc:	9b 97       	sbiw	r26, 0x2b	; 43
    12fe:	4e 1b       	sub	r20, r30
    1300:	5f 0b       	sbc	r21, r31
    1302:	5e 96       	adiw	r26, 0x1e	; 30
    1304:	ed 91       	ld	r30, X+
    1306:	fc 91       	ld	r31, X
    1308:	5f 97       	sbiw	r26, 0x1f	; 31
    130a:	09 95       	icall
    130c:	0f 91       	pop	r16
    130e:	08 95       	ret

00001310 <u8g2_DrawHVLine>:
    1310:	0f 93       	push	r16
    1312:	cf 93       	push	r28
    1314:	df 93       	push	r29
    1316:	dc 01       	movw	r26, r24
    1318:	80 2f       	mov	r24, r16
    131a:	fd 01       	movw	r30, r26
    131c:	e2 59       	subi	r30, 0x92	; 146
    131e:	ff 4f       	sbci	r31, 0xFF	; 255
    1320:	90 81       	ld	r25, Z
    1322:	99 23       	and	r25, r25
    1324:	09 f4       	brne	.+2      	; 0x1328 <u8g2_DrawHVLine+0x18>
    1326:	8f c0       	rjmp	.+286    	; 0x1446 <u8g2_DrawHVLine+0x136>
    1328:	21 15       	cp	r18, r1
    132a:	31 05       	cpc	r19, r1
    132c:	09 f4       	brne	.+2      	; 0x1330 <u8g2_DrawHVLine+0x20>
    132e:	8b c0       	rjmp	.+278    	; 0x1446 <u8g2_DrawHVLine+0x136>
    1330:	22 30       	cpi	r18, 0x02	; 2
    1332:	31 05       	cpc	r19, r1
    1334:	68 f0       	brcs	.+26     	; 0x1350 <u8g2_DrawHVLine+0x40>
    1336:	02 30       	cpi	r16, 0x02	; 2
    1338:	29 f4       	brne	.+10     	; 0x1344 <u8g2_DrawHVLine+0x34>
    133a:	6f 5f       	subi	r22, 0xFF	; 255
    133c:	7f 4f       	sbci	r23, 0xFF	; 255
    133e:	62 1b       	sub	r22, r18
    1340:	73 0b       	sbc	r23, r19
    1342:	06 c0       	rjmp	.+12     	; 0x1350 <u8g2_DrawHVLine+0x40>
    1344:	03 30       	cpi	r16, 0x03	; 3
    1346:	21 f4       	brne	.+8      	; 0x1350 <u8g2_DrawHVLine+0x40>
    1348:	4f 5f       	subi	r20, 0xFF	; 255
    134a:	5f 4f       	sbci	r21, 0xFF	; 255
    134c:	42 1b       	sub	r20, r18
    134e:	53 0b       	sbc	r21, r19
    1350:	08 2f       	mov	r16, r24
    1352:	01 70       	andi	r16, 0x01	; 1
    1354:	80 fd       	sbrc	r24, 0
    1356:	39 c0       	rjmp	.+114    	; 0x13ca <u8g2_DrawHVLine+0xba>
    1358:	d8 96       	adiw	r26, 0x38	; 56
    135a:	8d 91       	ld	r24, X+
    135c:	9c 91       	ld	r25, X
    135e:	d9 97       	sbiw	r26, 0x39	; 57
    1360:	48 17       	cp	r20, r24
    1362:	59 07       	cpc	r21, r25
    1364:	08 f4       	brcc	.+2      	; 0x1368 <u8g2_DrawHVLine+0x58>
    1366:	6f c0       	rjmp	.+222    	; 0x1446 <u8g2_DrawHVLine+0x136>
    1368:	da 96       	adiw	r26, 0x3a	; 58
    136a:	8d 91       	ld	r24, X+
    136c:	9c 91       	ld	r25, X
    136e:	db 97       	sbiw	r26, 0x3b	; 59
    1370:	48 17       	cp	r20, r24
    1372:	59 07       	cpc	r21, r25
    1374:	08 f0       	brcs	.+2      	; 0x1378 <u8g2_DrawHVLine+0x68>
    1376:	67 c0       	rjmp	.+206    	; 0x1446 <u8g2_DrawHVLine+0x136>
    1378:	d6 96       	adiw	r26, 0x36	; 54
    137a:	ed 91       	ld	r30, X+
    137c:	fc 91       	ld	r31, X
    137e:	d7 97       	sbiw	r26, 0x37	; 55
    1380:	d4 96       	adiw	r26, 0x34	; 52
    1382:	8d 91       	ld	r24, X+
    1384:	9c 91       	ld	r25, X
    1386:	d5 97       	sbiw	r26, 0x35	; 53
    1388:	26 0f       	add	r18, r22
    138a:	37 1f       	adc	r19, r23
    138c:	26 17       	cp	r18, r22
    138e:	37 07       	cpc	r19, r23
    1390:	40 f4       	brcc	.+16     	; 0x13a2 <u8g2_DrawHVLine+0x92>
    1392:	6e 17       	cp	r22, r30
    1394:	7f 07       	cpc	r23, r31
    1396:	20 f4       	brcc	.+8      	; 0x13a0 <u8g2_DrawHVLine+0x90>
    1398:	9f 01       	movw	r18, r30
    139a:	21 50       	subi	r18, 0x01	; 1
    139c:	31 09       	sbc	r19, r1
    139e:	05 c0       	rjmp	.+10     	; 0x13aa <u8g2_DrawHVLine+0x9a>
    13a0:	bc 01       	movw	r22, r24
    13a2:	6e 17       	cp	r22, r30
    13a4:	7f 07       	cpc	r23, r31
    13a6:	08 f0       	brcs	.+2      	; 0x13aa <u8g2_DrawHVLine+0x9a>
    13a8:	4e c0       	rjmp	.+156    	; 0x1446 <u8g2_DrawHVLine+0x136>
    13aa:	82 17       	cp	r24, r18
    13ac:	93 07       	cpc	r25, r19
    13ae:	08 f0       	brcs	.+2      	; 0x13b2 <u8g2_DrawHVLine+0xa2>
    13b0:	4a c0       	rjmp	.+148    	; 0x1446 <u8g2_DrawHVLine+0x136>
    13b2:	68 17       	cp	r22, r24
    13b4:	79 07       	cpc	r23, r25
    13b6:	08 f4       	brcc	.+2      	; 0x13ba <u8g2_DrawHVLine+0xaa>
    13b8:	bc 01       	movw	r22, r24
    13ba:	2e 17       	cp	r18, r30
    13bc:	3f 07       	cpc	r19, r31
    13be:	08 f4       	brcc	.+2      	; 0x13c2 <u8g2_DrawHVLine+0xb2>
    13c0:	f9 01       	movw	r30, r18
    13c2:	9f 01       	movw	r18, r30
    13c4:	26 1b       	sub	r18, r22
    13c6:	37 0b       	sbc	r19, r23
    13c8:	34 c0       	rjmp	.+104    	; 0x1432 <u8g2_DrawHVLine+0x122>
    13ca:	d4 96       	adiw	r26, 0x34	; 52
    13cc:	8d 91       	ld	r24, X+
    13ce:	9c 91       	ld	r25, X
    13d0:	d5 97       	sbiw	r26, 0x35	; 53
    13d2:	68 17       	cp	r22, r24
    13d4:	79 07       	cpc	r23, r25
    13d6:	b8 f1       	brcs	.+110    	; 0x1446 <u8g2_DrawHVLine+0x136>
    13d8:	d6 96       	adiw	r26, 0x36	; 54
    13da:	8d 91       	ld	r24, X+
    13dc:	9c 91       	ld	r25, X
    13de:	d7 97       	sbiw	r26, 0x37	; 55
    13e0:	68 17       	cp	r22, r24
    13e2:	79 07       	cpc	r23, r25
    13e4:	80 f5       	brcc	.+96     	; 0x1446 <u8g2_DrawHVLine+0x136>
    13e6:	da 96       	adiw	r26, 0x3a	; 58
    13e8:	ed 91       	ld	r30, X+
    13ea:	fc 91       	ld	r31, X
    13ec:	db 97       	sbiw	r26, 0x3b	; 59
    13ee:	d8 96       	adiw	r26, 0x38	; 56
    13f0:	8d 91       	ld	r24, X+
    13f2:	9c 91       	ld	r25, X
    13f4:	d9 97       	sbiw	r26, 0x39	; 57
    13f6:	24 0f       	add	r18, r20
    13f8:	35 1f       	adc	r19, r21
    13fa:	24 17       	cp	r18, r20
    13fc:	35 07       	cpc	r19, r21
    13fe:	40 f4       	brcc	.+16     	; 0x1410 <u8g2_DrawHVLine+0x100>
    1400:	4e 17       	cp	r20, r30
    1402:	5f 07       	cpc	r21, r31
    1404:	20 f4       	brcc	.+8      	; 0x140e <u8g2_DrawHVLine+0xfe>
    1406:	9f 01       	movw	r18, r30
    1408:	21 50       	subi	r18, 0x01	; 1
    140a:	31 09       	sbc	r19, r1
    140c:	04 c0       	rjmp	.+8      	; 0x1416 <u8g2_DrawHVLine+0x106>
    140e:	ac 01       	movw	r20, r24
    1410:	4e 17       	cp	r20, r30
    1412:	5f 07       	cpc	r21, r31
    1414:	c0 f4       	brcc	.+48     	; 0x1446 <u8g2_DrawHVLine+0x136>
    1416:	82 17       	cp	r24, r18
    1418:	93 07       	cpc	r25, r19
    141a:	a8 f4       	brcc	.+42     	; 0x1446 <u8g2_DrawHVLine+0x136>
    141c:	48 17       	cp	r20, r24
    141e:	59 07       	cpc	r21, r25
    1420:	08 f4       	brcc	.+2      	; 0x1424 <u8g2_DrawHVLine+0x114>
    1422:	ac 01       	movw	r20, r24
    1424:	2e 17       	cp	r18, r30
    1426:	3f 07       	cpc	r19, r31
    1428:	08 f4       	brcc	.+2      	; 0x142c <u8g2_DrawHVLine+0x11c>
    142a:	f9 01       	movw	r30, r18
    142c:	9f 01       	movw	r18, r30
    142e:	24 1b       	sub	r18, r20
    1430:	35 0b       	sbc	r19, r21
    1432:	90 96       	adiw	r26, 0x20	; 32
    1434:	cd 91       	ld	r28, X+
    1436:	dc 91       	ld	r29, X
    1438:	91 97       	sbiw	r26, 0x21	; 33
    143a:	0c 80       	ldd	r0, Y+4	; 0x04
    143c:	dd 81       	ldd	r29, Y+5	; 0x05
    143e:	c0 2d       	mov	r28, r0
    1440:	cd 01       	movw	r24, r26
    1442:	fe 01       	movw	r30, r28
    1444:	09 95       	icall
    1446:	df 91       	pop	r29
    1448:	cf 91       	pop	r28
    144a:	0f 91       	pop	r16
    144c:	08 95       	ret

0000144e <u8g2_is_intersection_decision_tree>:
    144e:	46 17       	cp	r20, r22
    1450:	57 07       	cpc	r21, r23
    1452:	40 f4       	brcc	.+16     	; 0x1464 <u8g2_is_intersection_decision_tree+0x16>
    1454:	82 17       	cp	r24, r18
    1456:	93 07       	cpc	r25, r19
    1458:	50 f0       	brcs	.+20     	; 0x146e <u8g2_is_intersection_decision_tree+0x20>
    145a:	81 e0       	ldi	r24, 0x01	; 1
    145c:	24 17       	cp	r18, r20
    145e:	35 07       	cpc	r19, r21
    1460:	38 f0       	brcs	.+14     	; 0x1470 <u8g2_is_intersection_decision_tree+0x22>
    1462:	03 c0       	rjmp	.+6      	; 0x146a <u8g2_is_intersection_decision_tree+0x1c>
    1464:	82 17       	cp	r24, r18
    1466:	93 07       	cpc	r25, r19
    1468:	c0 f3       	brcs	.-16     	; 0x145a <u8g2_is_intersection_decision_tree+0xc>
    146a:	80 e0       	ldi	r24, 0x00	; 0
    146c:	08 95       	ret
    146e:	81 e0       	ldi	r24, 0x01	; 1
    1470:	08 95       	ret

00001472 <u8g2_IsIntersection>:
    1472:	cf 92       	push	r12
    1474:	df 92       	push	r13
    1476:	ef 92       	push	r14
    1478:	ff 92       	push	r15
    147a:	0f 93       	push	r16
    147c:	1f 93       	push	r17
    147e:	cf 93       	push	r28
    1480:	df 93       	push	r29
    1482:	ec 01       	movw	r28, r24
    1484:	7b 01       	movw	r14, r22
    1486:	69 01       	movw	r12, r18
    1488:	98 01       	movw	r18, r16
    148a:	6a ad       	ldd	r22, Y+58	; 0x3a
    148c:	7b ad       	ldd	r23, Y+59	; 0x3b
    148e:	88 ad       	ldd	r24, Y+56	; 0x38
    1490:	99 ad       	ldd	r25, Y+57	; 0x39
    1492:	0e 94 27 0a 	call	0x144e	; 0x144e <u8g2_is_intersection_decision_tree>
    1496:	88 23       	and	r24, r24
    1498:	81 f0       	breq	.+32     	; 0x14ba <u8g2_IsIntersection+0x48>
    149a:	6e a9       	ldd	r22, Y+54	; 0x36
    149c:	7f a9       	ldd	r23, Y+55	; 0x37
    149e:	96 01       	movw	r18, r12
    14a0:	a7 01       	movw	r20, r14
    14a2:	8c a9       	ldd	r24, Y+52	; 0x34
    14a4:	9d a9       	ldd	r25, Y+53	; 0x35
    14a6:	df 91       	pop	r29
    14a8:	cf 91       	pop	r28
    14aa:	1f 91       	pop	r17
    14ac:	0f 91       	pop	r16
    14ae:	ff 90       	pop	r15
    14b0:	ef 90       	pop	r14
    14b2:	df 90       	pop	r13
    14b4:	cf 90       	pop	r12
    14b6:	0c 94 27 0a 	jmp	0x144e	; 0x144e <u8g2_is_intersection_decision_tree>
    14ba:	80 e0       	ldi	r24, 0x00	; 0
    14bc:	df 91       	pop	r29
    14be:	cf 91       	pop	r28
    14c0:	1f 91       	pop	r17
    14c2:	0f 91       	pop	r16
    14c4:	ff 90       	pop	r15
    14c6:	ef 90       	pop	r14
    14c8:	df 90       	pop	r13
    14ca:	cf 90       	pop	r12
    14cc:	08 95       	ret

000014ce <u8g2_ll_hvline_vertical_top_lsb>:
    14ce:	af 92       	push	r10
    14d0:	bf 92       	push	r11
    14d2:	cf 92       	push	r12
    14d4:	df 92       	push	r13
    14d6:	ef 92       	push	r14
    14d8:	ff 92       	push	r15
    14da:	0f 93       	push	r16
    14dc:	cf 93       	push	r28
    14de:	df 93       	push	r29
    14e0:	ec 01       	movw	r28, r24
    14e2:	da 01       	movw	r26, r20
    14e4:	79 01       	movw	r14, r18
    14e6:	94 2f       	mov	r25, r20
    14e8:	97 70       	andi	r25, 0x07	; 7
    14ea:	e1 e0       	ldi	r30, 0x01	; 1
    14ec:	f0 e0       	ldi	r31, 0x00	; 0
    14ee:	9f 01       	movw	r18, r30
    14f0:	09 2e       	mov	r0, r25
    14f2:	01 c0       	rjmp	.+2      	; 0x14f6 <u8g2_ll_hvline_vertical_top_lsb+0x28>
    14f4:	22 0f       	add	r18, r18
    14f6:	0a 94       	dec	r0
    14f8:	ea f7       	brpl	.-6      	; 0x14f4 <u8g2_ll_hvline_vertical_top_lsb+0x26>
    14fa:	52 2f       	mov	r21, r18
    14fc:	6e 01       	movw	r12, r28
    14fe:	84 e7       	ldi	r24, 0x74	; 116
    1500:	c8 0e       	add	r12, r24
    1502:	d1 1c       	adc	r13, r1
    1504:	f6 01       	movw	r30, r12
    1506:	80 81       	ld	r24, Z
    1508:	82 30       	cpi	r24, 0x02	; 2
    150a:	28 f4       	brcc	.+10     	; 0x1516 <u8g2_ll_hvline_vertical_top_lsb+0x48>
    150c:	42 2f       	mov	r20, r18
    150e:	81 30       	cpi	r24, 0x01	; 1
    1510:	19 f4       	brne	.+6      	; 0x1518 <u8g2_ll_hvline_vertical_top_lsb+0x4a>
    1512:	50 e0       	ldi	r21, 0x00	; 0
    1514:	01 c0       	rjmp	.+2      	; 0x1518 <u8g2_ll_hvline_vertical_top_lsb+0x4a>
    1516:	40 e0       	ldi	r20, 0x00	; 0
    1518:	5d 01       	movw	r10, r26
    151a:	f8 ef       	ldi	r31, 0xF8	; 248
    151c:	af 22       	and	r10, r31
    151e:	2a a1       	ldd	r18, Y+34	; 0x22
    1520:	3b a1       	ldd	r19, Y+35	; 0x23
    1522:	a8 81       	ld	r26, Y
    1524:	b9 81       	ldd	r27, Y+1	; 0x01
    1526:	50 96       	adiw	r26, 0x10	; 16
    1528:	8c 91       	ld	r24, X
    152a:	8a 9d       	mul	r24, r10
    152c:	d0 01       	movw	r26, r0
    152e:	8b 9d       	mul	r24, r11
    1530:	b0 0d       	add	r27, r0
    1532:	11 24       	eor	r1, r1
    1534:	6a 0f       	add	r22, r26
    1536:	7b 1f       	adc	r23, r27
    1538:	d9 01       	movw	r26, r18
    153a:	a6 0f       	add	r26, r22
    153c:	b7 1f       	adc	r27, r23
    153e:	01 11       	cpse	r16, r1
    1540:	0f c0       	rjmp	.+30     	; 0x1560 <u8g2_ll_hvline_vertical_top_lsb+0x92>
    1542:	ea 0e       	add	r14, r26
    1544:	fb 1e       	adc	r15, r27
    1546:	8c 91       	ld	r24, X
    1548:	84 2b       	or	r24, r20
    154a:	85 27       	eor	r24, r21
    154c:	8d 93       	st	X+, r24
    154e:	ae 15       	cp	r26, r14
    1550:	bf 05       	cpc	r27, r15
    1552:	c9 f7       	brne	.-14     	; 0x1546 <u8g2_ll_hvline_vertical_top_lsb+0x78>
    1554:	20 c0       	rjmp	.+64     	; 0x1596 <u8g2_ll_hvline_vertical_top_lsb+0xc8>
    1556:	44 0f       	add	r20, r20
    1558:	55 0f       	add	r21, r21
    155a:	e1 14       	cp	r14, r1
    155c:	f1 04       	cpc	r15, r1
    155e:	d9 f0       	breq	.+54     	; 0x1596 <u8g2_ll_hvline_vertical_top_lsb+0xc8>
    1560:	3c 91       	ld	r19, X
    1562:	34 2b       	or	r19, r20
    1564:	35 27       	eor	r19, r21
    1566:	3c 93       	st	X, r19
    1568:	9f 5f       	subi	r25, 0xFF	; 255
    156a:	97 70       	andi	r25, 0x07	; 7
    156c:	81 e0       	ldi	r24, 0x01	; 1
    156e:	e8 1a       	sub	r14, r24
    1570:	f1 08       	sbc	r15, r1
    1572:	91 11       	cpse	r25, r1
    1574:	f0 cf       	rjmp	.-32     	; 0x1556 <u8g2_ll_hvline_vertical_top_lsb+0x88>
    1576:	2e a1       	ldd	r18, Y+38	; 0x26
    1578:	3f a1       	ldd	r19, Y+39	; 0x27
    157a:	a2 0f       	add	r26, r18
    157c:	b3 1f       	adc	r27, r19
    157e:	f6 01       	movw	r30, r12
    1580:	80 81       	ld	r24, Z
    1582:	82 30       	cpi	r24, 0x02	; 2
    1584:	20 f4       	brcc	.+8      	; 0x158e <u8g2_ll_hvline_vertical_top_lsb+0xc0>
    1586:	81 30       	cpi	r24, 0x01	; 1
    1588:	21 f0       	breq	.+8      	; 0x1592 <u8g2_ll_hvline_vertical_top_lsb+0xc4>
    158a:	51 e0       	ldi	r21, 0x01	; 1
    158c:	02 c0       	rjmp	.+4      	; 0x1592 <u8g2_ll_hvline_vertical_top_lsb+0xc4>
    158e:	51 e0       	ldi	r21, 0x01	; 1
    1590:	e4 cf       	rjmp	.-56     	; 0x155a <u8g2_ll_hvline_vertical_top_lsb+0x8c>
    1592:	41 e0       	ldi	r20, 0x01	; 1
    1594:	e2 cf       	rjmp	.-60     	; 0x155a <u8g2_ll_hvline_vertical_top_lsb+0x8c>
    1596:	df 91       	pop	r29
    1598:	cf 91       	pop	r28
    159a:	0f 91       	pop	r16
    159c:	ff 90       	pop	r15
    159e:	ef 90       	pop	r14
    15a0:	df 90       	pop	r13
    15a2:	cf 90       	pop	r12
    15a4:	bf 90       	pop	r11
    15a6:	af 90       	pop	r10
    15a8:	08 95       	ret

000015aa <u8g2_update_dimension_common>:
    15aa:	cf 93       	push	r28
    15ac:	df 93       	push	r29
    15ae:	fc 01       	movw	r30, r24
    15b0:	a0 81       	ld	r26, Z
    15b2:	b1 81       	ldd	r27, Z+1	; 0x01
    15b4:	84 a1       	ldd	r24, Z+36	; 0x24
    15b6:	90 e0       	ldi	r25, 0x00	; 0
    15b8:	9c 01       	movw	r18, r24
    15ba:	53 e0       	ldi	r21, 0x03	; 3
    15bc:	22 0f       	add	r18, r18
    15be:	33 1f       	adc	r19, r19
    15c0:	5a 95       	dec	r21
    15c2:	e1 f7       	brne	.-8      	; 0x15bc <u8g2_update_dimension_common+0x12>
    15c4:	31 a7       	std	Z+41, r19	; 0x29
    15c6:	20 a7       	std	Z+40, r18	; 0x28
    15c8:	50 96       	adiw	r26, 0x10	; 16
    15ca:	2c 91       	ld	r18, X
    15cc:	50 97       	sbiw	r26, 0x10	; 16
    15ce:	48 e0       	ldi	r20, 0x08	; 8
    15d0:	24 9f       	mul	r18, r20
    15d2:	90 01       	movw	r18, r0
    15d4:	11 24       	eor	r1, r1
    15d6:	37 a3       	std	Z+39, r19	; 0x27
    15d8:	26 a3       	std	Z+38, r18	; 0x26
    15da:	45 a1       	ldd	r20, Z+37	; 0x25
    15dc:	50 e0       	ldi	r21, 0x00	; 0
    15de:	9a 01       	movw	r18, r20
    15e0:	63 e0       	ldi	r22, 0x03	; 3
    15e2:	22 0f       	add	r18, r18
    15e4:	33 1f       	adc	r19, r19
    15e6:	6a 95       	dec	r22
    15e8:	e1 f7       	brne	.-8      	; 0x15e2 <u8g2_update_dimension_common+0x38>
    15ea:	33 a7       	std	Z+43, r19	; 0x2b
    15ec:	22 a7       	std	Z+42, r18	; 0x2a
    15ee:	51 96       	adiw	r26, 0x11	; 17
    15f0:	6c 91       	ld	r22, X
    15f2:	51 97       	sbiw	r26, 0x11	; 17
    15f4:	ea 01       	movw	r28, r20
    15f6:	c8 0f       	add	r28, r24
    15f8:	d9 1f       	adc	r29, r25
    15fa:	70 e0       	ldi	r23, 0x00	; 0
    15fc:	6c 17       	cp	r22, r28
    15fe:	7d 07       	cpc	r23, r29
    1600:	18 f4       	brcc	.+6      	; 0x1608 <u8g2_update_dimension_common+0x5e>
    1602:	cb 01       	movw	r24, r22
    1604:	84 1b       	sub	r24, r20
    1606:	95 0b       	sbc	r25, r21
    1608:	35 a7       	std	Z+45, r19	; 0x2d
    160a:	24 a7       	std	Z+44, r18	; 0x2c
    160c:	43 e0       	ldi	r20, 0x03	; 3
    160e:	88 0f       	add	r24, r24
    1610:	99 1f       	adc	r25, r25
    1612:	4a 95       	dec	r20
    1614:	e1 f7       	brne	.-8      	; 0x160e <u8g2_update_dimension_common+0x64>
    1616:	82 0f       	add	r24, r18
    1618:	93 1f       	adc	r25, r19
    161a:	97 a7       	std	Z+47, r25	; 0x2f
    161c:	86 a7       	std	Z+46, r24	; 0x2e
    161e:	54 96       	adiw	r26, 0x14	; 20
    1620:	8d 91       	ld	r24, X+
    1622:	9c 91       	ld	r25, X
    1624:	55 97       	sbiw	r26, 0x15	; 21
    1626:	91 ab       	std	Z+49, r25	; 0x31
    1628:	80 ab       	std	Z+48, r24	; 0x30
    162a:	56 96       	adiw	r26, 0x16	; 22
    162c:	8d 91       	ld	r24, X+
    162e:	9c 91       	ld	r25, X
    1630:	57 97       	sbiw	r26, 0x17	; 23
    1632:	93 ab       	std	Z+51, r25	; 0x33
    1634:	82 ab       	std	Z+50, r24	; 0x32
    1636:	df 91       	pop	r29
    1638:	cf 91       	pop	r28
    163a:	08 95       	ret

0000163c <u8g2_draw_l90_r0>:
    163c:	0f 93       	push	r16
    163e:	0e 94 79 09 	call	0x12f2	; 0x12f2 <u8g2_draw_hv_line_2dir>
    1642:	0f 91       	pop	r16
    1644:	08 95       	ret

00001646 <u8g2_apply_clip_window>:
    1646:	cf 92       	push	r12
    1648:	df 92       	push	r13
    164a:	ef 92       	push	r14
    164c:	ff 92       	push	r15
    164e:	0f 93       	push	r16
    1650:	1f 93       	push	r17
    1652:	cf 93       	push	r28
    1654:	df 93       	push	r29
    1656:	ec 01       	movw	r28, r24
    1658:	7c 01       	movw	r14, r24
    165a:	82 e4       	ldi	r24, 0x42	; 66
    165c:	e8 0e       	add	r14, r24
    165e:	f1 1c       	adc	r15, r1
    1660:	f7 01       	movw	r30, r14
    1662:	00 81       	ld	r16, Z
    1664:	11 81       	ldd	r17, Z+1	; 0x01
    1666:	2e ad       	ldd	r18, Y+62	; 0x3e
    1668:	3f ad       	ldd	r19, Y+63	; 0x3f
    166a:	6e 01       	movw	r12, r28
    166c:	f0 e4       	ldi	r31, 0x40	; 64
    166e:	cf 0e       	add	r12, r31
    1670:	d1 1c       	adc	r13, r1
    1672:	f6 01       	movw	r30, r12
    1674:	40 81       	ld	r20, Z
    1676:	51 81       	ldd	r21, Z+1	; 0x01
    1678:	6c ad       	ldd	r22, Y+60	; 0x3c
    167a:	7d ad       	ldd	r23, Y+61	; 0x3d
    167c:	ce 01       	movw	r24, r28
    167e:	0e 94 39 0a 	call	0x1472	; 0x1472 <u8g2_IsIntersection>
    1682:	fe 01       	movw	r30, r28
    1684:	e2 59       	subi	r30, 0x92	; 146
    1686:	ff 4f       	sbci	r31, 0xFF	; 255
    1688:	81 11       	cpse	r24, r1
    168a:	02 c0       	rjmp	.+4      	; 0x1690 <u8g2_apply_clip_window+0x4a>
    168c:	10 82       	st	Z, r1
    168e:	28 c0       	rjmp	.+80     	; 0x16e0 <u8g2_apply_clip_window+0x9a>
    1690:	81 e0       	ldi	r24, 0x01	; 1
    1692:	80 83       	st	Z, r24
    1694:	8c ad       	ldd	r24, Y+60	; 0x3c
    1696:	9d ad       	ldd	r25, Y+61	; 0x3d
    1698:	2c a9       	ldd	r18, Y+52	; 0x34
    169a:	3d a9       	ldd	r19, Y+53	; 0x35
    169c:	28 17       	cp	r18, r24
    169e:	39 07       	cpc	r19, r25
    16a0:	10 f4       	brcc	.+4      	; 0x16a6 <u8g2_apply_clip_window+0x60>
    16a2:	9d ab       	std	Y+53, r25	; 0x35
    16a4:	8c ab       	std	Y+52, r24	; 0x34
    16a6:	8e ad       	ldd	r24, Y+62	; 0x3e
    16a8:	9f ad       	ldd	r25, Y+63	; 0x3f
    16aa:	2e a9       	ldd	r18, Y+54	; 0x36
    16ac:	3f a9       	ldd	r19, Y+55	; 0x37
    16ae:	82 17       	cp	r24, r18
    16b0:	93 07       	cpc	r25, r19
    16b2:	10 f4       	brcc	.+4      	; 0x16b8 <u8g2_apply_clip_window+0x72>
    16b4:	9f ab       	std	Y+55, r25	; 0x37
    16b6:	8e ab       	std	Y+54, r24	; 0x36
    16b8:	f6 01       	movw	r30, r12
    16ba:	80 81       	ld	r24, Z
    16bc:	91 81       	ldd	r25, Z+1	; 0x01
    16be:	28 ad       	ldd	r18, Y+56	; 0x38
    16c0:	39 ad       	ldd	r19, Y+57	; 0x39
    16c2:	28 17       	cp	r18, r24
    16c4:	39 07       	cpc	r19, r25
    16c6:	10 f4       	brcc	.+4      	; 0x16cc <u8g2_apply_clip_window+0x86>
    16c8:	99 af       	std	Y+57, r25	; 0x39
    16ca:	88 af       	std	Y+56, r24	; 0x38
    16cc:	f7 01       	movw	r30, r14
    16ce:	80 81       	ld	r24, Z
    16d0:	91 81       	ldd	r25, Z+1	; 0x01
    16d2:	2a ad       	ldd	r18, Y+58	; 0x3a
    16d4:	3b ad       	ldd	r19, Y+59	; 0x3b
    16d6:	82 17       	cp	r24, r18
    16d8:	93 07       	cpc	r25, r19
    16da:	10 f4       	brcc	.+4      	; 0x16e0 <u8g2_apply_clip_window+0x9a>
    16dc:	9b af       	std	Y+59, r25	; 0x3b
    16de:	8a af       	std	Y+58, r24	; 0x3a
    16e0:	df 91       	pop	r29
    16e2:	cf 91       	pop	r28
    16e4:	1f 91       	pop	r17
    16e6:	0f 91       	pop	r16
    16e8:	ff 90       	pop	r15
    16ea:	ef 90       	pop	r14
    16ec:	df 90       	pop	r13
    16ee:	cf 90       	pop	r12
    16f0:	08 95       	ret

000016f2 <u8g2_update_page_win_r0>:
    16f2:	fc 01       	movw	r30, r24
    16f4:	15 aa       	std	Z+53, r1	; 0x35
    16f6:	14 aa       	std	Z+52, r1	; 0x34
    16f8:	80 a9       	ldd	r24, Z+48	; 0x30
    16fa:	91 a9       	ldd	r25, Z+49	; 0x31
    16fc:	97 ab       	std	Z+55, r25	; 0x37
    16fe:	86 ab       	std	Z+54, r24	; 0x36
    1700:	84 a5       	ldd	r24, Z+44	; 0x2c
    1702:	95 a5       	ldd	r25, Z+45	; 0x2d
    1704:	91 af       	std	Z+57, r25	; 0x39
    1706:	80 af       	std	Z+56, r24	; 0x38
    1708:	86 a5       	ldd	r24, Z+46	; 0x2e
    170a:	97 a5       	ldd	r25, Z+47	; 0x2f
    170c:	93 af       	std	Z+59, r25	; 0x3b
    170e:	82 af       	std	Z+58, r24	; 0x3a
    1710:	cf 01       	movw	r24, r30
    1712:	0c 94 23 0b 	jmp	0x1646	; 0x1646 <u8g2_apply_clip_window>

00001716 <u8g2_update_dimension_r0>:
    1716:	0c 94 d5 0a 	jmp	0x15aa	; 0x15aa <u8g2_update_dimension_common>

0000171a <u8g2_SetMaxClipWindow>:
    171a:	dc 01       	movw	r26, r24
    171c:	dd 96       	adiw	r26, 0x3d	; 61
    171e:	1c 92       	st	X, r1
    1720:	1e 92       	st	-X, r1
    1722:	dc 97       	sbiw	r26, 0x3c	; 60
    1724:	fc 01       	movw	r30, r24
    1726:	e0 5c       	subi	r30, 0xC0	; 192
    1728:	ff 4f       	sbci	r31, 0xFF	; 255
    172a:	11 82       	std	Z+1, r1	; 0x01
    172c:	10 82       	st	Z, r1
    172e:	2f ef       	ldi	r18, 0xFF	; 255
    1730:	3f ef       	ldi	r19, 0xFF	; 255
    1732:	fc 01       	movw	r30, r24
    1734:	37 af       	std	Z+63, r19	; 0x3f
    1736:	26 af       	std	Z+62, r18	; 0x3e
    1738:	ee 5b       	subi	r30, 0xBE	; 190
    173a:	ff 4f       	sbci	r31, 0xFF	; 255
    173c:	31 83       	std	Z+1, r19	; 0x01
    173e:	20 83       	st	Z, r18
    1740:	90 96       	adiw	r26, 0x20	; 32
    1742:	ed 91       	ld	r30, X+
    1744:	fc 91       	ld	r31, X
    1746:	91 97       	sbiw	r26, 0x21	; 33
    1748:	02 80       	ldd	r0, Z+2	; 0x02
    174a:	f3 81       	ldd	r31, Z+3	; 0x03
    174c:	e0 2d       	mov	r30, r0
    174e:	09 94       	ijmp

00001750 <u8g2_SetupBuffer>:
    1750:	0f 93       	push	r16
    1752:	1f 93       	push	r17
    1754:	cf 93       	push	r28
    1756:	df 93       	push	r29
    1758:	ec 01       	movw	r28, r24
    175a:	fc 01       	movw	r30, r24
    175c:	ec 5b       	subi	r30, 0xBC	; 188
    175e:	ff 4f       	sbci	r31, 0xFF	; 255
    1760:	11 82       	std	Z+1, r1	; 0x01
    1762:	10 82       	st	Z, r1
    1764:	3f 8f       	std	Y+31, r19	; 0x1f
    1766:	2e 8f       	std	Y+30, r18	; 0x1e
    1768:	7b a3       	std	Y+35, r23	; 0x23
    176a:	6a a3       	std	Y+34, r22	; 0x22
    176c:	4c a3       	std	Y+36, r20	; 0x24
    176e:	1d a2       	std	Y+37, r1	; 0x25
    1770:	3f 96       	adiw	r30, 0x0f	; 15
    1772:	10 82       	st	Z, r1
    1774:	b0 96       	adiw	r30, 0x20	; 32
    1776:	10 82       	st	Z, r1
    1778:	34 97       	sbiw	r30, 0x04	; 4
    177a:	10 82       	st	Z, r1
    177c:	35 96       	adiw	r30, 0x05	; 5
    177e:	81 e0       	ldi	r24, 0x01	; 1
    1780:	80 83       	st	Z, r24
    1782:	31 96       	adiw	r30, 0x01	; 1
    1784:	80 83       	st	Z, r24
    1786:	19 a3       	std	Y+33, r17	; 0x21
    1788:	08 a3       	std	Y+32, r16	; 0x20
    178a:	d8 01       	movw	r26, r16
    178c:	ed 91       	ld	r30, X+
    178e:	fc 91       	ld	r31, X
    1790:	ce 01       	movw	r24, r28
    1792:	09 95       	icall
    1794:	ce 01       	movw	r24, r28
    1796:	0e 94 8d 0b 	call	0x171a	; 0x171a <u8g2_SetMaxClipWindow>
    179a:	ce 01       	movw	r24, r28
    179c:	0e 94 50 09 	call	0x12a0	; 0x12a0 <u8g2_SetFontPosBaseline>
    17a0:	ca 5a       	subi	r28, 0xAA	; 170
    17a2:	df 4f       	sbci	r29, 0xFF	; 255
    17a4:	18 82       	st	Y, r1
    17a6:	df 91       	pop	r29
    17a8:	cf 91       	pop	r28
    17aa:	1f 91       	pop	r17
    17ac:	0f 91       	pop	r16
    17ae:	08 95       	ret

000017b0 <u8x8_ascii_next>:
    17b0:	66 23       	and	r22, r22
    17b2:	29 f0       	breq	.+10     	; 0x17be <u8x8_ascii_next+0xe>
    17b4:	6a 30       	cpi	r22, 0x0A	; 10
    17b6:	19 f0       	breq	.+6      	; 0x17be <u8x8_ascii_next+0xe>
    17b8:	86 2f       	mov	r24, r22
    17ba:	90 e0       	ldi	r25, 0x00	; 0
    17bc:	08 95       	ret
    17be:	8f ef       	ldi	r24, 0xFF	; 255
    17c0:	9f ef       	ldi	r25, 0xFF	; 255
    17c2:	08 95       	ret

000017c4 <u8x8_utf8_init>:
    17c4:	fc 01       	movw	r30, r24
    17c6:	10 8e       	std	Z+24, r1	; 0x18
    17c8:	08 95       	ret

000017ca <u8x8_byte_SetDC>:
    17ca:	46 2f       	mov	r20, r22
    17cc:	dc 01       	movw	r26, r24
    17ce:	18 96       	adiw	r26, 0x08	; 8
    17d0:	ed 91       	ld	r30, X+
    17d2:	fc 91       	ld	r31, X
    17d4:	19 97       	sbiw	r26, 0x09	; 9
    17d6:	20 e0       	ldi	r18, 0x00	; 0
    17d8:	30 e0       	ldi	r19, 0x00	; 0
    17da:	60 e2       	ldi	r22, 0x20	; 32
    17dc:	09 94       	ijmp

000017de <u8x8_byte_SendBytes>:
    17de:	9a 01       	movw	r18, r20
    17e0:	dc 01       	movw	r26, r24
    17e2:	18 96       	adiw	r26, 0x08	; 8
    17e4:	ed 91       	ld	r30, X+
    17e6:	fc 91       	ld	r31, X
    17e8:	19 97       	sbiw	r26, 0x09	; 9
    17ea:	46 2f       	mov	r20, r22
    17ec:	67 e1       	ldi	r22, 0x17	; 23
    17ee:	09 94       	ijmp

000017f0 <u8x8_byte_SendByte>:
    17f0:	cf 93       	push	r28
    17f2:	df 93       	push	r29
    17f4:	1f 92       	push	r1
    17f6:	cd b7       	in	r28, 0x3d	; 61
    17f8:	de b7       	in	r29, 0x3e	; 62
    17fa:	69 83       	std	Y+1, r22	; 0x01
    17fc:	ae 01       	movw	r20, r28
    17fe:	4f 5f       	subi	r20, 0xFF	; 255
    1800:	5f 4f       	sbci	r21, 0xFF	; 255
    1802:	61 e0       	ldi	r22, 0x01	; 1
    1804:	0e 94 ef 0b 	call	0x17de	; 0x17de <u8x8_byte_SendBytes>
    1808:	0f 90       	pop	r0
    180a:	df 91       	pop	r29
    180c:	cf 91       	pop	r28
    180e:	08 95       	ret

00001810 <u8x8_cad_SendCmd>:
    1810:	46 2f       	mov	r20, r22
    1812:	dc 01       	movw	r26, r24
    1814:	16 96       	adiw	r26, 0x06	; 6
    1816:	ed 91       	ld	r30, X+
    1818:	fc 91       	ld	r31, X
    181a:	17 97       	sbiw	r26, 0x07	; 7
    181c:	20 e0       	ldi	r18, 0x00	; 0
    181e:	30 e0       	ldi	r19, 0x00	; 0
    1820:	65 e1       	ldi	r22, 0x15	; 21
    1822:	09 94       	ijmp

00001824 <u8x8_cad_SendArg>:
    1824:	46 2f       	mov	r20, r22
    1826:	dc 01       	movw	r26, r24
    1828:	16 96       	adiw	r26, 0x06	; 6
    182a:	ed 91       	ld	r30, X+
    182c:	fc 91       	ld	r31, X
    182e:	17 97       	sbiw	r26, 0x07	; 7
    1830:	20 e0       	ldi	r18, 0x00	; 0
    1832:	30 e0       	ldi	r19, 0x00	; 0
    1834:	66 e1       	ldi	r22, 0x16	; 22
    1836:	09 94       	ijmp

00001838 <u8x8_cad_SendData>:
    1838:	9a 01       	movw	r18, r20
    183a:	dc 01       	movw	r26, r24
    183c:	16 96       	adiw	r26, 0x06	; 6
    183e:	ed 91       	ld	r30, X+
    1840:	fc 91       	ld	r31, X
    1842:	17 97       	sbiw	r26, 0x07	; 7
    1844:	46 2f       	mov	r20, r22
    1846:	67 e1       	ldi	r22, 0x17	; 23
    1848:	09 94       	ijmp

0000184a <u8x8_cad_StartTransfer>:
    184a:	dc 01       	movw	r26, r24
    184c:	16 96       	adiw	r26, 0x06	; 6
    184e:	ed 91       	ld	r30, X+
    1850:	fc 91       	ld	r31, X
    1852:	17 97       	sbiw	r26, 0x07	; 7
    1854:	20 e0       	ldi	r18, 0x00	; 0
    1856:	30 e0       	ldi	r19, 0x00	; 0
    1858:	40 e0       	ldi	r20, 0x00	; 0
    185a:	68 e1       	ldi	r22, 0x18	; 24
    185c:	09 94       	ijmp

0000185e <u8x8_cad_EndTransfer>:
    185e:	dc 01       	movw	r26, r24
    1860:	16 96       	adiw	r26, 0x06	; 6
    1862:	ed 91       	ld	r30, X+
    1864:	fc 91       	ld	r31, X
    1866:	17 97       	sbiw	r26, 0x07	; 7
    1868:	20 e0       	ldi	r18, 0x00	; 0
    186a:	30 e0       	ldi	r19, 0x00	; 0
    186c:	40 e0       	ldi	r20, 0x00	; 0
    186e:	69 e1       	ldi	r22, 0x19	; 25
    1870:	09 94       	ijmp

00001872 <u8x8_cad_SendSequence>:
    1872:	ef 92       	push	r14
    1874:	ff 92       	push	r15
    1876:	0f 93       	push	r16
    1878:	1f 93       	push	r17
    187a:	cf 93       	push	r28
    187c:	df 93       	push	r29
    187e:	1f 92       	push	r1
    1880:	cd b7       	in	r28, 0x3d	; 61
    1882:	de b7       	in	r29, 0x3e	; 62
    1884:	7c 01       	movw	r14, r24
    1886:	8b 01       	movw	r16, r22
    1888:	d8 01       	movw	r26, r16
    188a:	6c 91       	ld	r22, X
    188c:	67 31       	cpi	r22, 0x17	; 23
    188e:	e1 f0       	breq	.+56     	; 0x18c8 <u8x8_cad_SendSequence+0x56>
    1890:	78 f4       	brcc	.+30     	; 0x18b0 <u8x8_cad_SendSequence+0x3e>
    1892:	65 31       	cpi	r22, 0x15	; 21
    1894:	a0 f1       	brcs	.+104    	; 0x18fe <u8x8_cad_SendSequence+0x8c>
    1896:	f8 01       	movw	r30, r16
    1898:	41 81       	ldd	r20, Z+1	; 0x01
    189a:	49 83       	std	Y+1, r20	; 0x01
    189c:	d7 01       	movw	r26, r14
    189e:	16 96       	adiw	r26, 0x06	; 6
    18a0:	ed 91       	ld	r30, X+
    18a2:	fc 91       	ld	r31, X
    18a4:	17 97       	sbiw	r26, 0x07	; 7
    18a6:	20 e0       	ldi	r18, 0x00	; 0
    18a8:	30 e0       	ldi	r19, 0x00	; 0
    18aa:	c7 01       	movw	r24, r14
    18ac:	09 95       	icall
    18ae:	24 c0       	rjmp	.+72     	; 0x18f8 <u8x8_cad_SendSequence+0x86>
    18b0:	6a 31       	cpi	r22, 0x1A	; 26
    18b2:	a8 f0       	brcs	.+42     	; 0x18de <u8x8_cad_SendSequence+0x6c>
    18b4:	6e 3f       	cpi	r22, 0xFE	; 254
    18b6:	19 f5       	brne	.+70     	; 0x18fe <u8x8_cad_SendSequence+0x8c>
    18b8:	f8 01       	movw	r30, r16
    18ba:	41 81       	ldd	r20, Z+1	; 0x01
    18bc:	49 83       	std	Y+1, r20	; 0x01
    18be:	69 e2       	ldi	r22, 0x29	; 41
    18c0:	c7 01       	movw	r24, r14
    18c2:	0e 94 e2 0d 	call	0x1bc4	; 0x1bc4 <u8x8_gpio_call>
    18c6:	18 c0       	rjmp	.+48     	; 0x18f8 <u8x8_cad_SendSequence+0x86>
    18c8:	f8 01       	movw	r30, r16
    18ca:	81 81       	ldd	r24, Z+1	; 0x01
    18cc:	89 83       	std	Y+1, r24	; 0x01
    18ce:	ae 01       	movw	r20, r28
    18d0:	4f 5f       	subi	r20, 0xFF	; 255
    18d2:	5f 4f       	sbci	r21, 0xFF	; 255
    18d4:	61 e0       	ldi	r22, 0x01	; 1
    18d6:	c7 01       	movw	r24, r14
    18d8:	0e 94 1c 0c 	call	0x1838	; 0x1838 <u8x8_cad_SendData>
    18dc:	0d c0       	rjmp	.+26     	; 0x18f8 <u8x8_cad_SendSequence+0x86>
    18de:	0f 5f       	subi	r16, 0xFF	; 255
    18e0:	1f 4f       	sbci	r17, 0xFF	; 255
    18e2:	d7 01       	movw	r26, r14
    18e4:	16 96       	adiw	r26, 0x06	; 6
    18e6:	ed 91       	ld	r30, X+
    18e8:	fc 91       	ld	r31, X
    18ea:	17 97       	sbiw	r26, 0x07	; 7
    18ec:	20 e0       	ldi	r18, 0x00	; 0
    18ee:	30 e0       	ldi	r19, 0x00	; 0
    18f0:	40 e0       	ldi	r20, 0x00	; 0
    18f2:	c7 01       	movw	r24, r14
    18f4:	09 95       	icall
    18f6:	c8 cf       	rjmp	.-112    	; 0x1888 <u8x8_cad_SendSequence+0x16>
    18f8:	0e 5f       	subi	r16, 0xFE	; 254
    18fa:	1f 4f       	sbci	r17, 0xFF	; 255
    18fc:	c5 cf       	rjmp	.-118    	; 0x1888 <u8x8_cad_SendSequence+0x16>
    18fe:	0f 90       	pop	r0
    1900:	df 91       	pop	r29
    1902:	cf 91       	pop	r28
    1904:	1f 91       	pop	r17
    1906:	0f 91       	pop	r16
    1908:	ff 90       	pop	r15
    190a:	ef 90       	pop	r14
    190c:	08 95       	ret

0000190e <u8x8_cad_001>:
    190e:	ef 92       	push	r14
    1910:	ff 92       	push	r15
    1912:	0f 93       	push	r16
    1914:	1f 93       	push	r17
    1916:	cf 93       	push	r28
    1918:	df 93       	push	r29
    191a:	ec 01       	movw	r28, r24
    191c:	16 2f       	mov	r17, r22
    191e:	04 2f       	mov	r16, r20
    1920:	79 01       	movw	r14, r18
    1922:	66 31       	cpi	r22, 0x16	; 22
    1924:	59 f0       	breq	.+22     	; 0x193c <u8x8_cad_001+0x2e>
    1926:	28 f4       	brcc	.+10     	; 0x1932 <u8x8_cad_001+0x24>
    1928:	64 31       	cpi	r22, 0x14	; 20
    192a:	a9 f0       	breq	.+42     	; 0x1956 <u8x8_cad_001+0x48>
    192c:	65 31       	cpi	r22, 0x15	; 21
    192e:	31 f0       	breq	.+12     	; 0x193c <u8x8_cad_001+0x2e>
    1930:	1f c0       	rjmp	.+62     	; 0x1970 <u8x8_cad_001+0x62>
    1932:	67 31       	cpi	r22, 0x17	; 23
    1934:	69 f0       	breq	.+26     	; 0x1950 <u8x8_cad_001+0x42>
    1936:	6a 31       	cpi	r22, 0x1A	; 26
    1938:	d8 f4       	brcc	.+54     	; 0x1970 <u8x8_cad_001+0x62>
    193a:	0d c0       	rjmp	.+26     	; 0x1956 <u8x8_cad_001+0x48>
    193c:	60 e0       	ldi	r22, 0x00	; 0
    193e:	ce 01       	movw	r24, r28
    1940:	0e 94 e5 0b 	call	0x17ca	; 0x17ca <u8x8_byte_SetDC>
    1944:	60 2f       	mov	r22, r16
    1946:	ce 01       	movw	r24, r28
    1948:	0e 94 f8 0b 	call	0x17f0	; 0x17f0 <u8x8_byte_SendByte>
    194c:	81 e0       	ldi	r24, 0x01	; 1
    194e:	11 c0       	rjmp	.+34     	; 0x1972 <u8x8_cad_001+0x64>
    1950:	61 e0       	ldi	r22, 0x01	; 1
    1952:	0e 94 e5 0b 	call	0x17ca	; 0x17ca <u8x8_byte_SetDC>
    1956:	e8 85       	ldd	r30, Y+8	; 0x08
    1958:	f9 85       	ldd	r31, Y+9	; 0x09
    195a:	97 01       	movw	r18, r14
    195c:	40 2f       	mov	r20, r16
    195e:	61 2f       	mov	r22, r17
    1960:	ce 01       	movw	r24, r28
    1962:	df 91       	pop	r29
    1964:	cf 91       	pop	r28
    1966:	1f 91       	pop	r17
    1968:	0f 91       	pop	r16
    196a:	ff 90       	pop	r15
    196c:	ef 90       	pop	r14
    196e:	09 94       	ijmp
    1970:	80 e0       	ldi	r24, 0x00	; 0
    1972:	df 91       	pop	r29
    1974:	cf 91       	pop	r28
    1976:	1f 91       	pop	r17
    1978:	0f 91       	pop	r16
    197a:	ff 90       	pop	r15
    197c:	ef 90       	pop	r14
    197e:	08 95       	ret

00001980 <u8x8_d_helper_display_setup_memory>:
    1980:	fc 01       	movw	r30, r24
    1982:	71 83       	std	Z+1, r23	; 0x01
    1984:	60 83       	st	Z, r22
    1986:	fb 01       	movw	r30, r22
    1988:	22 89       	ldd	r18, Z+18	; 0x12
    198a:	fc 01       	movw	r30, r24
    198c:	24 8b       	std	Z+20, r18	; 0x14
    198e:	08 95       	ret

00001990 <u8x8_d_helper_display_init>:
    1990:	cf 93       	push	r28
    1992:	df 93       	push	r29
    1994:	ec 01       	movw	r28, r24
    1996:	ea 85       	ldd	r30, Y+10	; 0x0a
    1998:	fb 85       	ldd	r31, Y+11	; 0x0b
    199a:	20 e0       	ldi	r18, 0x00	; 0
    199c:	30 e0       	ldi	r19, 0x00	; 0
    199e:	40 e0       	ldi	r20, 0x00	; 0
    19a0:	68 e2       	ldi	r22, 0x28	; 40
    19a2:	09 95       	icall
    19a4:	ee 81       	ldd	r30, Y+6	; 0x06
    19a6:	ff 81       	ldd	r31, Y+7	; 0x07
    19a8:	20 e0       	ldi	r18, 0x00	; 0
    19aa:	30 e0       	ldi	r19, 0x00	; 0
    19ac:	40 e0       	ldi	r20, 0x00	; 0
    19ae:	64 e1       	ldi	r22, 0x14	; 20
    19b0:	ce 01       	movw	r24, r28
    19b2:	09 95       	icall
    19b4:	41 e0       	ldi	r20, 0x01	; 1
    19b6:	6b e4       	ldi	r22, 0x4B	; 75
    19b8:	ce 01       	movw	r24, r28
    19ba:	0e 94 e2 0d 	call	0x1bc4	; 0x1bc4 <u8x8_gpio_call>
    19be:	e8 81       	ld	r30, Y
    19c0:	f9 81       	ldd	r31, Y+1	; 0x01
    19c2:	44 81       	ldd	r20, Z+4	; 0x04
    19c4:	69 e2       	ldi	r22, 0x29	; 41
    19c6:	ce 01       	movw	r24, r28
    19c8:	0e 94 e2 0d 	call	0x1bc4	; 0x1bc4 <u8x8_gpio_call>
    19cc:	40 e0       	ldi	r20, 0x00	; 0
    19ce:	6b e4       	ldi	r22, 0x4B	; 75
    19d0:	ce 01       	movw	r24, r28
    19d2:	0e 94 e2 0d 	call	0x1bc4	; 0x1bc4 <u8x8_gpio_call>
    19d6:	e8 81       	ld	r30, Y
    19d8:	f9 81       	ldd	r31, Y+1	; 0x01
    19da:	44 81       	ldd	r20, Z+4	; 0x04
    19dc:	69 e2       	ldi	r22, 0x29	; 41
    19de:	ce 01       	movw	r24, r28
    19e0:	0e 94 e2 0d 	call	0x1bc4	; 0x1bc4 <u8x8_gpio_call>
    19e4:	41 e0       	ldi	r20, 0x01	; 1
    19e6:	6b e4       	ldi	r22, 0x4B	; 75
    19e8:	ce 01       	movw	r24, r28
    19ea:	0e 94 e2 0d 	call	0x1bc4	; 0x1bc4 <u8x8_gpio_call>
    19ee:	e8 81       	ld	r30, Y
    19f0:	f9 81       	ldd	r31, Y+1	; 0x01
    19f2:	45 81       	ldd	r20, Z+5	; 0x05
    19f4:	69 e2       	ldi	r22, 0x29	; 41
    19f6:	ce 01       	movw	r24, r28
    19f8:	df 91       	pop	r29
    19fa:	cf 91       	pop	r28
    19fc:	0c 94 e2 0d 	jmp	0x1bc4	; 0x1bc4 <u8x8_gpio_call>

00001a00 <u8x8_DrawTile>:
    1a00:	0f 93       	push	r16
    1a02:	1f 93       	push	r17
    1a04:	cf 93       	push	r28
    1a06:	df 93       	push	r29
    1a08:	00 d0       	rcall	.+0      	; 0x1a0a <u8x8_DrawTile+0xa>
    1a0a:	00 d0       	rcall	.+0      	; 0x1a0c <u8x8_DrawTile+0xc>
    1a0c:	1f 92       	push	r1
    1a0e:	cd b7       	in	r28, 0x3d	; 61
    1a10:	de b7       	in	r29, 0x3e	; 62
    1a12:	6c 83       	std	Y+4, r22	; 0x04
    1a14:	4d 83       	std	Y+5, r20	; 0x05
    1a16:	2b 83       	std	Y+3, r18	; 0x03
    1a18:	1a 83       	std	Y+2, r17	; 0x02
    1a1a:	09 83       	std	Y+1, r16	; 0x01
    1a1c:	dc 01       	movw	r26, r24
    1a1e:	14 96       	adiw	r26, 0x04	; 4
    1a20:	ed 91       	ld	r30, X+
    1a22:	fc 91       	ld	r31, X
    1a24:	15 97       	sbiw	r26, 0x05	; 5
    1a26:	9e 01       	movw	r18, r28
    1a28:	2f 5f       	subi	r18, 0xFF	; 255
    1a2a:	3f 4f       	sbci	r19, 0xFF	; 255
    1a2c:	41 e0       	ldi	r20, 0x01	; 1
    1a2e:	6f e0       	ldi	r22, 0x0F	; 15
    1a30:	09 95       	icall
    1a32:	0f 90       	pop	r0
    1a34:	0f 90       	pop	r0
    1a36:	0f 90       	pop	r0
    1a38:	0f 90       	pop	r0
    1a3a:	0f 90       	pop	r0
    1a3c:	df 91       	pop	r29
    1a3e:	cf 91       	pop	r28
    1a40:	1f 91       	pop	r17
    1a42:	0f 91       	pop	r16
    1a44:	08 95       	ret

00001a46 <u8x8_SetupMemory>:
    1a46:	dc 01       	movw	r26, r24
    1a48:	14 96       	adiw	r26, 0x04	; 4
    1a4a:	ed 91       	ld	r30, X+
    1a4c:	fc 91       	ld	r31, X
    1a4e:	15 97       	sbiw	r26, 0x05	; 5
    1a50:	20 e0       	ldi	r18, 0x00	; 0
    1a52:	30 e0       	ldi	r19, 0x00	; 0
    1a54:	40 e0       	ldi	r20, 0x00	; 0
    1a56:	69 e0       	ldi	r22, 0x09	; 9
    1a58:	09 94       	ijmp

00001a5a <u8x8_InitDisplay>:
    1a5a:	dc 01       	movw	r26, r24
    1a5c:	14 96       	adiw	r26, 0x04	; 4
    1a5e:	ed 91       	ld	r30, X+
    1a60:	fc 91       	ld	r31, X
    1a62:	15 97       	sbiw	r26, 0x05	; 5
    1a64:	20 e0       	ldi	r18, 0x00	; 0
    1a66:	30 e0       	ldi	r19, 0x00	; 0
    1a68:	40 e0       	ldi	r20, 0x00	; 0
    1a6a:	6a e0       	ldi	r22, 0x0A	; 10
    1a6c:	09 94       	ijmp

00001a6e <u8x8_SetPowerSave>:
    1a6e:	46 2f       	mov	r20, r22
    1a70:	dc 01       	movw	r26, r24
    1a72:	14 96       	adiw	r26, 0x04	; 4
    1a74:	ed 91       	ld	r30, X+
    1a76:	fc 91       	ld	r31, X
    1a78:	15 97       	sbiw	r26, 0x05	; 5
    1a7a:	20 e0       	ldi	r18, 0x00	; 0
    1a7c:	30 e0       	ldi	r19, 0x00	; 0
    1a7e:	6b e0       	ldi	r22, 0x0B	; 11
    1a80:	09 94       	ijmp

00001a82 <u8x8_RefreshDisplay>:
    1a82:	dc 01       	movw	r26, r24
    1a84:	14 96       	adiw	r26, 0x04	; 4
    1a86:	ed 91       	ld	r30, X+
    1a88:	fc 91       	ld	r31, X
    1a8a:	15 97       	sbiw	r26, 0x05	; 5
    1a8c:	20 e0       	ldi	r18, 0x00	; 0
    1a8e:	30 e0       	ldi	r19, 0x00	; 0
    1a90:	40 e0       	ldi	r20, 0x00	; 0
    1a92:	60 e1       	ldi	r22, 0x10	; 16
    1a94:	09 94       	ijmp

00001a96 <u8x8_d_ssd1306_sh1106_generic>:
    1a96:	ef 92       	push	r14
    1a98:	ff 92       	push	r15
    1a9a:	0f 93       	push	r16
    1a9c:	1f 93       	push	r17
    1a9e:	cf 93       	push	r28
    1aa0:	df 93       	push	r29
    1aa2:	ec 01       	movw	r28, r24
    1aa4:	14 2f       	mov	r17, r20
    1aa6:	79 01       	movw	r14, r18
    1aa8:	6d 30       	cpi	r22, 0x0D	; 13
    1aaa:	a9 f1       	breq	.+106    	; 0x1b16 <u8x8_d_ssd1306_sh1106_generic+0x80>
    1aac:	18 f4       	brcc	.+6      	; 0x1ab4 <u8x8_d_ssd1306_sh1106_generic+0x1e>
    1aae:	6b 30       	cpi	r22, 0x0B	; 11
    1ab0:	39 f1       	breq	.+78     	; 0x1b00 <u8x8_d_ssd1306_sh1106_generic+0x6a>
    1ab2:	60 c0       	rjmp	.+192    	; 0x1b74 <u8x8_d_ssd1306_sh1106_generic+0xde>
    1ab4:	6e 30       	cpi	r22, 0x0E	; 14
    1ab6:	09 f4       	brne	.+2      	; 0x1aba <u8x8_d_ssd1306_sh1106_generic+0x24>
    1ab8:	41 c0       	rjmp	.+130    	; 0x1b3c <u8x8_d_ssd1306_sh1106_generic+0xa6>
    1aba:	6f 30       	cpi	r22, 0x0F	; 15
    1abc:	09 f0       	breq	.+2      	; 0x1ac0 <u8x8_d_ssd1306_sh1106_generic+0x2a>
    1abe:	5a c0       	rjmp	.+180    	; 0x1b74 <u8x8_d_ssd1306_sh1106_generic+0xde>
    1ac0:	0e 94 25 0c 	call	0x184a	; 0x184a <u8x8_cad_StartTransfer>
    1ac4:	f7 01       	movw	r30, r14
    1ac6:	83 81       	ldd	r24, Z+3	; 0x03
    1ac8:	0c 89       	ldd	r16, Y+20	; 0x14
    1aca:	f8 e0       	ldi	r31, 0x08	; 8
    1acc:	8f 9f       	mul	r24, r31
    1ace:	00 0d       	add	r16, r0
    1ad0:	11 24       	eor	r1, r1
    1ad2:	60 e4       	ldi	r22, 0x40	; 64
    1ad4:	ce 01       	movw	r24, r28
    1ad6:	0e 94 08 0c 	call	0x1810	; 0x1810 <u8x8_cad_SendCmd>
    1ada:	60 2f       	mov	r22, r16
    1adc:	62 95       	swap	r22
    1ade:	6f 70       	andi	r22, 0x0F	; 15
    1ae0:	60 61       	ori	r22, 0x10	; 16
    1ae2:	ce 01       	movw	r24, r28
    1ae4:	0e 94 08 0c 	call	0x1810	; 0x1810 <u8x8_cad_SendCmd>
    1ae8:	60 2f       	mov	r22, r16
    1aea:	6f 70       	andi	r22, 0x0F	; 15
    1aec:	ce 01       	movw	r24, r28
    1aee:	0e 94 12 0c 	call	0x1824	; 0x1824 <u8x8_cad_SendArg>
    1af2:	f7 01       	movw	r30, r14
    1af4:	64 81       	ldd	r22, Z+4	; 0x04
    1af6:	60 6b       	ori	r22, 0xB0	; 176
    1af8:	ce 01       	movw	r24, r28
    1afa:	0e 94 12 0c 	call	0x1824	; 0x1824 <u8x8_cad_SendArg>
    1afe:	2d c0       	rjmp	.+90     	; 0x1b5a <u8x8_d_ssd1306_sh1106_generic+0xc4>
    1b00:	41 11       	cpse	r20, r1
    1b02:	03 c0       	rjmp	.+6      	; 0x1b0a <u8x8_d_ssd1306_sh1106_generic+0x74>
    1b04:	61 e3       	ldi	r22, 0x31	; 49
    1b06:	71 e0       	ldi	r23, 0x01	; 1
    1b08:	02 c0       	rjmp	.+4      	; 0x1b0e <u8x8_d_ssd1306_sh1106_generic+0x78>
    1b0a:	6c e2       	ldi	r22, 0x2C	; 44
    1b0c:	71 e0       	ldi	r23, 0x01	; 1
    1b0e:	ce 01       	movw	r24, r28
    1b10:	0e 94 39 0c 	call	0x1872	; 0x1872 <u8x8_cad_SendSequence>
    1b14:	20 c0       	rjmp	.+64     	; 0x1b56 <u8x8_d_ssd1306_sh1106_generic+0xc0>
    1b16:	41 11       	cpse	r20, r1
    1b18:	08 c0       	rjmp	.+16     	; 0x1b2a <u8x8_d_ssd1306_sh1106_generic+0x94>
    1b1a:	65 e2       	ldi	r22, 0x25	; 37
    1b1c:	71 e0       	ldi	r23, 0x01	; 1
    1b1e:	0e 94 39 0c 	call	0x1872	; 0x1872 <u8x8_cad_SendSequence>
    1b22:	e8 81       	ld	r30, Y
    1b24:	f9 81       	ldd	r31, Y+1	; 0x01
    1b26:	82 89       	ldd	r24, Z+18	; 0x12
    1b28:	07 c0       	rjmp	.+14     	; 0x1b38 <u8x8_d_ssd1306_sh1106_generic+0xa2>
    1b2a:	6e e1       	ldi	r22, 0x1E	; 30
    1b2c:	71 e0       	ldi	r23, 0x01	; 1
    1b2e:	0e 94 39 0c 	call	0x1872	; 0x1872 <u8x8_cad_SendSequence>
    1b32:	e8 81       	ld	r30, Y
    1b34:	f9 81       	ldd	r31, Y+1	; 0x01
    1b36:	83 89       	ldd	r24, Z+19	; 0x13
    1b38:	8c 8b       	std	Y+20, r24	; 0x14
    1b3a:	0d c0       	rjmp	.+26     	; 0x1b56 <u8x8_d_ssd1306_sh1106_generic+0xc0>
    1b3c:	0e 94 25 0c 	call	0x184a	; 0x184a <u8x8_cad_StartTransfer>
    1b40:	61 e8       	ldi	r22, 0x81	; 129
    1b42:	ce 01       	movw	r24, r28
    1b44:	0e 94 08 0c 	call	0x1810	; 0x1810 <u8x8_cad_SendCmd>
    1b48:	61 2f       	mov	r22, r17
    1b4a:	ce 01       	movw	r24, r28
    1b4c:	0e 94 12 0c 	call	0x1824	; 0x1824 <u8x8_cad_SendArg>
    1b50:	ce 01       	movw	r24, r28
    1b52:	0e 94 2f 0c 	call	0x185e	; 0x185e <u8x8_cad_EndTransfer>
    1b56:	81 e0       	ldi	r24, 0x01	; 1
    1b58:	0e c0       	rjmp	.+28     	; 0x1b76 <u8x8_d_ssd1306_sh1106_generic+0xe0>
    1b5a:	f7 01       	movw	r30, r14
    1b5c:	40 81       	ld	r20, Z
    1b5e:	51 81       	ldd	r21, Z+1	; 0x01
    1b60:	62 81       	ldd	r22, Z+2	; 0x02
    1b62:	66 0f       	add	r22, r22
    1b64:	66 0f       	add	r22, r22
    1b66:	66 0f       	add	r22, r22
    1b68:	ce 01       	movw	r24, r28
    1b6a:	0e 94 1c 0c 	call	0x1838	; 0x1838 <u8x8_cad_SendData>
    1b6e:	11 50       	subi	r17, 0x01	; 1
    1b70:	a1 f7       	brne	.-24     	; 0x1b5a <u8x8_d_ssd1306_sh1106_generic+0xc4>
    1b72:	ee cf       	rjmp	.-36     	; 0x1b50 <u8x8_d_ssd1306_sh1106_generic+0xba>
    1b74:	80 e0       	ldi	r24, 0x00	; 0
    1b76:	df 91       	pop	r29
    1b78:	cf 91       	pop	r28
    1b7a:	1f 91       	pop	r17
    1b7c:	0f 91       	pop	r16
    1b7e:	ff 90       	pop	r15
    1b80:	ef 90       	pop	r14
    1b82:	08 95       	ret

00001b84 <u8x8_d_ssd1306_128x64_alt0>:
    1b84:	1f 93       	push	r17
    1b86:	cf 93       	push	r28
    1b88:	df 93       	push	r29
    1b8a:	ec 01       	movw	r28, r24
    1b8c:	16 2f       	mov	r17, r22
    1b8e:	0e 94 4b 0d 	call	0x1a96	; 0x1a96 <u8x8_d_ssd1306_sh1106_generic>
    1b92:	81 11       	cpse	r24, r1
    1b94:	12 c0       	rjmp	.+36     	; 0x1bba <u8x8_d_ssd1306_128x64_alt0+0x36>
    1b96:	19 30       	cpi	r17, 0x09	; 9
    1b98:	59 f0       	breq	.+22     	; 0x1bb0 <u8x8_d_ssd1306_128x64_alt0+0x2c>
    1b9a:	1a 30       	cpi	r17, 0x0A	; 10
    1b9c:	79 f4       	brne	.+30     	; 0x1bbc <u8x8_d_ssd1306_128x64_alt0+0x38>
    1b9e:	ce 01       	movw	r24, r28
    1ba0:	0e 94 c8 0c 	call	0x1990	; 0x1990 <u8x8_d_helper_display_init>
    1ba4:	66 e3       	ldi	r22, 0x36	; 54
    1ba6:	71 e0       	ldi	r23, 0x01	; 1
    1ba8:	ce 01       	movw	r24, r28
    1baa:	0e 94 39 0c 	call	0x1872	; 0x1872 <u8x8_cad_SendSequence>
    1bae:	05 c0       	rjmp	.+10     	; 0x1bba <u8x8_d_ssd1306_128x64_alt0+0x36>
    1bb0:	66 e0       	ldi	r22, 0x06	; 6
    1bb2:	71 e0       	ldi	r23, 0x01	; 1
    1bb4:	ce 01       	movw	r24, r28
    1bb6:	0e 94 c0 0c 	call	0x1980	; 0x1980 <u8x8_d_helper_display_setup_memory>
    1bba:	81 e0       	ldi	r24, 0x01	; 1
    1bbc:	df 91       	pop	r29
    1bbe:	cf 91       	pop	r28
    1bc0:	1f 91       	pop	r17
    1bc2:	08 95       	ret

00001bc4 <u8x8_gpio_call>:
    1bc4:	dc 01       	movw	r26, r24
    1bc6:	1a 96       	adiw	r26, 0x0a	; 10
    1bc8:	ed 91       	ld	r30, X+
    1bca:	fc 91       	ld	r31, X
    1bcc:	1b 97       	sbiw	r26, 0x0b	; 11
    1bce:	20 e0       	ldi	r18, 0x00	; 0
    1bd0:	30 e0       	ldi	r19, 0x00	; 0
    1bd2:	09 94       	ijmp

00001bd4 <u8x8_dummy_cb>:
    1bd4:	80 e0       	ldi	r24, 0x00	; 0
    1bd6:	08 95       	ret

00001bd8 <u8x8_SetupDefaults>:
    1bd8:	fc 01       	movw	r30, r24
    1bda:	11 82       	std	Z+1, r1	; 0x01
    1bdc:	10 82       	st	Z, r1
    1bde:	8a ee       	ldi	r24, 0xEA	; 234
    1be0:	9d e0       	ldi	r25, 0x0D	; 13
    1be2:	95 83       	std	Z+5, r25	; 0x05
    1be4:	84 83       	std	Z+4, r24	; 0x04
    1be6:	97 83       	std	Z+7, r25	; 0x07
    1be8:	86 83       	std	Z+6, r24	; 0x06
    1bea:	91 87       	std	Z+9, r25	; 0x09
    1bec:	80 87       	std	Z+8, r24	; 0x08
    1bee:	93 87       	std	Z+11, r25	; 0x0b
    1bf0:	82 87       	std	Z+10, r24	; 0x0a
    1bf2:	15 8a       	std	Z+21, r1	; 0x15
    1bf4:	10 8e       	std	Z+24, r1	; 0x18
    1bf6:	14 86       	std	Z+12, r1	; 0x0c
    1bf8:	15 86       	std	Z+13, r1	; 0x0d
    1bfa:	16 86       	std	Z+14, r1	; 0x0e
    1bfc:	17 86       	std	Z+15, r1	; 0x0f
    1bfe:	8f ef       	ldi	r24, 0xFF	; 255
    1c00:	86 8b       	std	Z+22, r24	; 0x16
    1c02:	82 8f       	std	Z+26, r24	; 0x1a
    1c04:	08 95       	ret

00001c06 <u8x8_Setup>:
    1c06:	af 92       	push	r10
    1c08:	bf 92       	push	r11
    1c0a:	cf 92       	push	r12
    1c0c:	df 92       	push	r13
    1c0e:	ef 92       	push	r14
    1c10:	ff 92       	push	r15
    1c12:	0f 93       	push	r16
    1c14:	1f 93       	push	r17
    1c16:	cf 93       	push	r28
    1c18:	df 93       	push	r29
    1c1a:	ec 01       	movw	r28, r24
    1c1c:	5b 01       	movw	r10, r22
    1c1e:	6a 01       	movw	r12, r20
    1c20:	79 01       	movw	r14, r18
    1c22:	0e 94 ec 0d 	call	0x1bd8	; 0x1bd8 <u8x8_SetupDefaults>
    1c26:	bd 82       	std	Y+5, r11	; 0x05
    1c28:	ac 82       	std	Y+4, r10	; 0x04
    1c2a:	df 82       	std	Y+7, r13	; 0x07
    1c2c:	ce 82       	std	Y+6, r12	; 0x06
    1c2e:	f9 86       	std	Y+9, r15	; 0x09
    1c30:	e8 86       	std	Y+8, r14	; 0x08
    1c32:	1b 87       	std	Y+11, r17	; 0x0b
    1c34:	0a 87       	std	Y+10, r16	; 0x0a
    1c36:	ce 01       	movw	r24, r28
    1c38:	df 91       	pop	r29
    1c3a:	cf 91       	pop	r28
    1c3c:	1f 91       	pop	r17
    1c3e:	0f 91       	pop	r16
    1c40:	ff 90       	pop	r15
    1c42:	ef 90       	pop	r14
    1c44:	df 90       	pop	r13
    1c46:	cf 90       	pop	r12
    1c48:	bf 90       	pop	r11
    1c4a:	af 90       	pop	r10
    1c4c:	0c 94 23 0d 	jmp	0x1a46	; 0x1a46 <u8x8_SetupMemory>

00001c50 <i2c_init>:
    1c50:	10 92 b9 00 	sts	0x00B9, r1	; 0x8000b9 <__TEXT_REGION_LENGTH__+0x7f80b9>
    1c54:	80 e2       	ldi	r24, 0x20	; 32
    1c56:	80 93 b8 00 	sts	0x00B8, r24	; 0x8000b8 <__TEXT_REGION_LENGTH__+0x7f80b8>
    1c5a:	08 95       	ret

00001c5c <i2c_start_wait>:
    1c5c:	44 ea       	ldi	r20, 0xA4	; 164
    1c5e:	54 e8       	ldi	r21, 0x84	; 132
    1c60:	64 e9       	ldi	r22, 0x94	; 148
    1c62:	40 93 bc 00 	sts	0x00BC, r20	; 0x8000bc <__TEXT_REGION_LENGTH__+0x7f80bc>
    1c66:	20 e0       	ldi	r18, 0x00	; 0
    1c68:	30 e0       	ldi	r19, 0x00	; 0
    1c6a:	90 91 bc 00 	lds	r25, 0x00BC	; 0x8000bc <__TEXT_REGION_LENGTH__+0x7f80bc>
    1c6e:	97 fd       	sbrc	r25, 7
    1c70:	06 c0       	rjmp	.+12     	; 0x1c7e <i2c_start_wait+0x22>
    1c72:	2f 5f       	subi	r18, 0xFF	; 255
    1c74:	3f 4f       	sbci	r19, 0xFF	; 255
    1c76:	21 15       	cp	r18, r1
    1c78:	91 e0       	ldi	r25, 0x01	; 1
    1c7a:	39 07       	cpc	r19, r25
    1c7c:	b1 f7       	brne	.-20     	; 0x1c6a <i2c_start_wait+0xe>
    1c7e:	90 91 b9 00 	lds	r25, 0x00B9	; 0x8000b9 <__TEXT_REGION_LENGTH__+0x7f80b9>
    1c82:	98 7f       	andi	r25, 0xF8	; 248
    1c84:	98 30       	cpi	r25, 0x08	; 8
    1c86:	11 f0       	breq	.+4      	; 0x1c8c <i2c_start_wait+0x30>
    1c88:	90 31       	cpi	r25, 0x10	; 16
    1c8a:	59 f7       	brne	.-42     	; 0x1c62 <i2c_start_wait+0x6>
    1c8c:	80 93 bb 00 	sts	0x00BB, r24	; 0x8000bb <__TEXT_REGION_LENGTH__+0x7f80bb>
    1c90:	50 93 bc 00 	sts	0x00BC, r21	; 0x8000bc <__TEXT_REGION_LENGTH__+0x7f80bc>
    1c94:	20 e0       	ldi	r18, 0x00	; 0
    1c96:	30 e0       	ldi	r19, 0x00	; 0
    1c98:	90 91 bc 00 	lds	r25, 0x00BC	; 0x8000bc <__TEXT_REGION_LENGTH__+0x7f80bc>
    1c9c:	97 fd       	sbrc	r25, 7
    1c9e:	06 c0       	rjmp	.+12     	; 0x1cac <i2c_start_wait+0x50>
    1ca0:	2f 5f       	subi	r18, 0xFF	; 255
    1ca2:	3f 4f       	sbci	r19, 0xFF	; 255
    1ca4:	21 15       	cp	r18, r1
    1ca6:	91 e0       	ldi	r25, 0x01	; 1
    1ca8:	39 07       	cpc	r19, r25
    1caa:	b1 f7       	brne	.-20     	; 0x1c98 <i2c_start_wait+0x3c>
    1cac:	90 91 b9 00 	lds	r25, 0x00B9	; 0x8000b9 <__TEXT_REGION_LENGTH__+0x7f80b9>
    1cb0:	98 7f       	andi	r25, 0xF8	; 248
    1cb2:	90 32       	cpi	r25, 0x20	; 32
    1cb4:	11 f0       	breq	.+4      	; 0x1cba <i2c_start_wait+0x5e>
    1cb6:	98 35       	cpi	r25, 0x58	; 88
    1cb8:	79 f4       	brne	.+30     	; 0x1cd8 <i2c_start_wait+0x7c>
    1cba:	60 93 bc 00 	sts	0x00BC, r22	; 0x8000bc <__TEXT_REGION_LENGTH__+0x7f80bc>
    1cbe:	20 e0       	ldi	r18, 0x00	; 0
    1cc0:	30 e0       	ldi	r19, 0x00	; 0
    1cc2:	90 91 bc 00 	lds	r25, 0x00BC	; 0x8000bc <__TEXT_REGION_LENGTH__+0x7f80bc>
    1cc6:	94 ff       	sbrs	r25, 4
    1cc8:	cc cf       	rjmp	.-104    	; 0x1c62 <i2c_start_wait+0x6>
    1cca:	2f 5f       	subi	r18, 0xFF	; 255
    1ccc:	3f 4f       	sbci	r19, 0xFF	; 255
    1cce:	21 15       	cp	r18, r1
    1cd0:	91 e0       	ldi	r25, 0x01	; 1
    1cd2:	39 07       	cpc	r19, r25
    1cd4:	b1 f7       	brne	.-20     	; 0x1cc2 <i2c_start_wait+0x66>
    1cd6:	c5 cf       	rjmp	.-118    	; 0x1c62 <i2c_start_wait+0x6>
    1cd8:	08 95       	ret

00001cda <i2c_stop>:
    1cda:	84 e9       	ldi	r24, 0x94	; 148
    1cdc:	80 93 bc 00 	sts	0x00BC, r24	; 0x8000bc <__TEXT_REGION_LENGTH__+0x7f80bc>
    1ce0:	80 e0       	ldi	r24, 0x00	; 0
    1ce2:	90 e0       	ldi	r25, 0x00	; 0
    1ce4:	20 91 bc 00 	lds	r18, 0x00BC	; 0x8000bc <__TEXT_REGION_LENGTH__+0x7f80bc>
    1ce8:	24 ff       	sbrs	r18, 4
    1cea:	05 c0       	rjmp	.+10     	; 0x1cf6 <i2c_stop+0x1c>
    1cec:	01 96       	adiw	r24, 0x01	; 1
    1cee:	81 15       	cp	r24, r1
    1cf0:	21 e0       	ldi	r18, 0x01	; 1
    1cf2:	92 07       	cpc	r25, r18
    1cf4:	b9 f7       	brne	.-18     	; 0x1ce4 <i2c_stop+0xa>
    1cf6:	08 95       	ret

00001cf8 <i2c_write>:
    1cf8:	80 93 bb 00 	sts	0x00BB, r24	; 0x8000bb <__TEXT_REGION_LENGTH__+0x7f80bb>
    1cfc:	84 e8       	ldi	r24, 0x84	; 132
    1cfe:	80 93 bc 00 	sts	0x00BC, r24	; 0x8000bc <__TEXT_REGION_LENGTH__+0x7f80bc>
    1d02:	8f ef       	ldi	r24, 0xFF	; 255
    1d04:	90 e0       	ldi	r25, 0x00	; 0
    1d06:	a0 e0       	ldi	r26, 0x00	; 0
    1d08:	b0 e0       	ldi	r27, 0x00	; 0
    1d0a:	20 91 bc 00 	lds	r18, 0x00BC	; 0x8000bc <__TEXT_REGION_LENGTH__+0x7f80bc>
    1d0e:	27 fd       	sbrc	r18, 7
    1d10:	05 c0       	rjmp	.+10     	; 0x1d1c <i2c_write+0x24>
    1d12:	01 97       	sbiw	r24, 0x01	; 1
    1d14:	a1 09       	sbc	r26, r1
    1d16:	b1 09       	sbc	r27, r1
    1d18:	c0 f7       	brcc	.-16     	; 0x1d0a <i2c_write+0x12>
    1d1a:	04 c0       	rjmp	.+8      	; 0x1d24 <i2c_write+0x2c>
    1d1c:	89 2b       	or	r24, r25
    1d1e:	8a 2b       	or	r24, r26
    1d20:	8b 2b       	or	r24, r27
    1d22:	41 f0       	breq	.+16     	; 0x1d34 <i2c_write+0x3c>
    1d24:	90 91 b9 00 	lds	r25, 0x00B9	; 0x8000b9 <__TEXT_REGION_LENGTH__+0x7f80b9>
    1d28:	98 7f       	andi	r25, 0xF8	; 248
    1d2a:	81 e0       	ldi	r24, 0x01	; 1
    1d2c:	98 32       	cpi	r25, 0x28	; 40
    1d2e:	19 f4       	brne	.+6      	; 0x1d36 <i2c_write+0x3e>
    1d30:	80 e0       	ldi	r24, 0x00	; 0
    1d32:	08 95       	ret
    1d34:	81 e0       	ldi	r24, 0x01	; 1
    1d36:	08 95       	ret

00001d38 <u8x8_byte_avr_hw_i2c>:
    1d38:	0f 93       	push	r16
    1d3a:	1f 93       	push	r17
    1d3c:	cf 93       	push	r28
    1d3e:	68 31       	cpi	r22, 0x18	; 24
    1d40:	c9 f0       	breq	.+50     	; 0x1d74 <u8x8_byte_avr_hw_i2c+0x3c>
    1d42:	38 f4       	brcc	.+14     	; 0x1d52 <u8x8_byte_avr_hw_i2c+0x1a>
    1d44:	64 31       	cpi	r22, 0x14	; 20
    1d46:	99 f0       	breq	.+38     	; 0x1d6e <u8x8_byte_avr_hw_i2c+0x36>
    1d48:	67 31       	cpi	r22, 0x17	; 23
    1d4a:	e9 f4       	brne	.+58     	; 0x1d86 <u8x8_byte_avr_hw_i2c+0x4e>
    1d4c:	89 01       	movw	r16, r18
    1d4e:	c4 2f       	mov	r28, r20
    1d50:	05 c0       	rjmp	.+10     	; 0x1d5c <u8x8_byte_avr_hw_i2c+0x24>
    1d52:	69 31       	cpi	r22, 0x19	; 25
    1d54:	a9 f0       	breq	.+42     	; 0x1d80 <u8x8_byte_avr_hw_i2c+0x48>
    1d56:	60 32       	cpi	r22, 0x20	; 32
    1d58:	89 f0       	breq	.+34     	; 0x1d7c <u8x8_byte_avr_hw_i2c+0x44>
    1d5a:	15 c0       	rjmp	.+42     	; 0x1d86 <u8x8_byte_avr_hw_i2c+0x4e>
    1d5c:	cc 23       	and	r28, r28
    1d5e:	71 f0       	breq	.+28     	; 0x1d7c <u8x8_byte_avr_hw_i2c+0x44>
    1d60:	f8 01       	movw	r30, r16
    1d62:	81 91       	ld	r24, Z+
    1d64:	8f 01       	movw	r16, r30
    1d66:	0e 94 7c 0e 	call	0x1cf8	; 0x1cf8 <i2c_write>
    1d6a:	c1 50       	subi	r28, 0x01	; 1
    1d6c:	f7 cf       	rjmp	.-18     	; 0x1d5c <u8x8_byte_avr_hw_i2c+0x24>
    1d6e:	0e 94 28 0e 	call	0x1c50	; 0x1c50 <i2c_init>
    1d72:	04 c0       	rjmp	.+8      	; 0x1d7c <u8x8_byte_avr_hw_i2c+0x44>
    1d74:	fc 01       	movw	r30, r24
    1d76:	86 89       	ldd	r24, Z+22	; 0x16
    1d78:	0e 94 2e 0e 	call	0x1c5c	; 0x1c5c <i2c_start_wait>
    1d7c:	81 e0       	ldi	r24, 0x01	; 1
    1d7e:	04 c0       	rjmp	.+8      	; 0x1d88 <u8x8_byte_avr_hw_i2c+0x50>
    1d80:	0e 94 6d 0e 	call	0x1cda	; 0x1cda <i2c_stop>
    1d84:	fb cf       	rjmp	.-10     	; 0x1d7c <u8x8_byte_avr_hw_i2c+0x44>
    1d86:	80 e0       	ldi	r24, 0x00	; 0
    1d88:	cf 91       	pop	r28
    1d8a:	1f 91       	pop	r17
    1d8c:	0f 91       	pop	r16
    1d8e:	08 95       	ret

00001d90 <u8x8_avr_delay>:
    1d90:	6a 32       	cpi	r22, 0x2A	; 42
    1d92:	d9 f0       	breq	.+54     	; 0x1dca <u8x8_avr_delay+0x3a>
    1d94:	18 f4       	brcc	.+6      	; 0x1d9c <u8x8_avr_delay+0xc>
    1d96:	69 32       	cpi	r22, 0x29	; 41
    1d98:	01 f1       	breq	.+64     	; 0x1dda <u8x8_avr_delay+0x4a>
    1d9a:	2b c0       	rjmp	.+86     	; 0x1df2 <u8x8_avr_delay+0x62>
    1d9c:	6b 32       	cpi	r22, 0x2B	; 43
    1d9e:	19 f0       	breq	.+6      	; 0x1da6 <u8x8_avr_delay+0x16>
    1da0:	6c 32       	cpi	r22, 0x2C	; 44
    1da2:	29 f1       	breq	.+74     	; 0x1dee <u8x8_avr_delay+0x5e>
    1da4:	26 c0       	rjmp	.+76     	; 0x1df2 <u8x8_avr_delay+0x62>
    1da6:	24 2f       	mov	r18, r20
    1da8:	30 e0       	ldi	r19, 0x00	; 0
    1daa:	a4 e6       	ldi	r26, 0x64	; 100
    1dac:	b0 e0       	ldi	r27, 0x00	; 0
    1dae:	0e 94 54 0f 	call	0x1ea8	; 0x1ea8 <__umulhisi3>
    1db2:	24 ef       	ldi	r18, 0xF4	; 244
    1db4:	31 e0       	ldi	r19, 0x01	; 1
    1db6:	40 e0       	ldi	r20, 0x00	; 0
    1db8:	50 e0       	ldi	r21, 0x00	; 0
    1dba:	0e 94 32 0f 	call	0x1e64	; 0x1e64 <__udivmodsi4>
    1dbe:	23 32       	cpi	r18, 0x23	; 35
    1dc0:	b0 f4       	brcc	.+44     	; 0x1dee <u8x8_avr_delay+0x5e>
    1dc2:	82 2f       	mov	r24, r18
    1dc4:	01 97       	sbiw	r24, 0x01	; 1
    1dc6:	f1 f7       	brne	.-4      	; 0x1dc4 <u8x8_avr_delay+0x34>
    1dc8:	12 c0       	rjmp	.+36     	; 0x1dee <u8x8_avr_delay+0x5e>
    1dca:	44 23       	and	r20, r20
    1dcc:	81 f0       	breq	.+32     	; 0x1dee <u8x8_avr_delay+0x5e>
    1dce:	8a e1       	ldi	r24, 0x1A	; 26
    1dd0:	8a 95       	dec	r24
    1dd2:	f1 f7       	brne	.-4      	; 0x1dd0 <u8x8_avr_delay+0x40>
    1dd4:	00 c0       	rjmp	.+0      	; 0x1dd6 <u8x8_avr_delay+0x46>
    1dd6:	41 50       	subi	r20, 0x01	; 1
    1dd8:	f8 cf       	rjmp	.-16     	; 0x1dca <u8x8_avr_delay+0x3a>
    1dda:	44 23       	and	r20, r20
    1ddc:	41 f0       	breq	.+16     	; 0x1dee <u8x8_avr_delay+0x5e>
    1dde:	8f ec       	ldi	r24, 0xCF	; 207
    1de0:	97 e0       	ldi	r25, 0x07	; 7
    1de2:	01 97       	sbiw	r24, 0x01	; 1
    1de4:	f1 f7       	brne	.-4      	; 0x1de2 <u8x8_avr_delay+0x52>
    1de6:	00 c0       	rjmp	.+0      	; 0x1de8 <u8x8_avr_delay+0x58>
    1de8:	00 00       	nop
    1dea:	41 50       	subi	r20, 0x01	; 1
    1dec:	f6 cf       	rjmp	.-20     	; 0x1dda <u8x8_avr_delay+0x4a>
    1dee:	81 e0       	ldi	r24, 0x01	; 1
    1df0:	08 95       	ret
    1df2:	80 e0       	ldi	r24, 0x00	; 0
    1df4:	08 95       	ret

00001df6 <main>:
    1df6:	28 ec       	ldi	r18, 0xC8	; 200
    1df8:	3e e0       	ldi	r19, 0x0E	; 14
    1dfa:	4c e9       	ldi	r20, 0x9C	; 156
    1dfc:	5e e0       	ldi	r21, 0x0E	; 14
    1dfe:	60 e0       	ldi	r22, 0x00	; 0
    1e00:	71 e0       	ldi	r23, 0x01	; 1
    1e02:	8e e7       	ldi	r24, 0x7E	; 126
    1e04:	95 e0       	ldi	r25, 0x05	; 5
    1e06:	0e 94 6e 05 	call	0xadc	; 0xadc <u8g2_Setup_ssd1306_128x64_alt0_f>
    1e0a:	8c e3       	ldi	r24, 0x3C	; 60
    1e0c:	80 93 94 05 	sts	0x0594, r24	; 0x800594 <u8g2+0x16>
    1e10:	8e e7       	ldi	r24, 0x7E	; 126
    1e12:	95 e0       	ldi	r25, 0x05	; 5
    1e14:	0e 94 2d 0d 	call	0x1a5a	; 0x1a5a <u8x8_InitDisplay>
    1e18:	60 e0       	ldi	r22, 0x00	; 0
    1e1a:	8e e7       	ldi	r24, 0x7E	; 126
    1e1c:	95 e0       	ldi	r25, 0x05	; 5
    1e1e:	0e 94 37 0d 	call	0x1a6e	; 0x1a6e <u8x8_SetPowerSave>
    1e22:	8e e7       	ldi	r24, 0x7E	; 126
    1e24:	95 e0       	ldi	r25, 0x05	; 5
    1e26:	0e 94 4a 05 	call	0xa94	; 0xa94 <u8g2_ClearBuffer>
    1e2a:	68 e6       	ldi	r22, 0x68	; 104
    1e2c:	70 e0       	ldi	r23, 0x00	; 0
    1e2e:	8e e7       	ldi	r24, 0x7E	; 126
    1e30:	95 e0       	ldi	r25, 0x05	; 5
    1e32:	0e 94 60 09 	call	0x12c0	; 0x12c0 <u8g2_SetFont>
    1e36:	8e e7       	ldi	r24, 0x7E	; 126
    1e38:	95 e0       	ldi	r25, 0x05	; 5
    1e3a:	0e 94 4a 09 	call	0x1294	; 0x1294 <u8g2_SetFontRefHeightText>
    1e3e:	8e e7       	ldi	r24, 0x7E	; 126
    1e40:	95 e0       	ldi	r25, 0x05	; 5
    1e42:	0e 94 58 09 	call	0x12b0	; 0x12b0 <u8g2_SetFontPosTop>
    1e46:	2b e6       	ldi	r18, 0x6B	; 107
    1e48:	31 e0       	ldi	r19, 0x01	; 1
    1e4a:	40 e0       	ldi	r20, 0x00	; 0
    1e4c:	50 e0       	ldi	r21, 0x00	; 0
    1e4e:	60 e0       	ldi	r22, 0x00	; 0
    1e50:	70 e0       	ldi	r23, 0x00	; 0
    1e52:	8e e7       	ldi	r24, 0x7E	; 126
    1e54:	95 e0       	ldi	r25, 0x05	; 5
    1e56:	0e 94 fd 08 	call	0x11fa	; 0x11fa <u8g2_DrawStr>
    1e5a:	8e e7       	ldi	r24, 0x7E	; 126
    1e5c:	95 e0       	ldi	r25, 0x05	; 5
    1e5e:	0e 94 5e 05 	call	0xabc	; 0xabc <u8g2_SendBuffer>
    1e62:	ff cf       	rjmp	.-2      	; 0x1e62 <main+0x6c>

00001e64 <__udivmodsi4>:
    1e64:	a1 e2       	ldi	r26, 0x21	; 33
    1e66:	1a 2e       	mov	r1, r26
    1e68:	aa 1b       	sub	r26, r26
    1e6a:	bb 1b       	sub	r27, r27
    1e6c:	fd 01       	movw	r30, r26
    1e6e:	0d c0       	rjmp	.+26     	; 0x1e8a <__udivmodsi4_ep>

00001e70 <__udivmodsi4_loop>:
    1e70:	aa 1f       	adc	r26, r26
    1e72:	bb 1f       	adc	r27, r27
    1e74:	ee 1f       	adc	r30, r30
    1e76:	ff 1f       	adc	r31, r31
    1e78:	a2 17       	cp	r26, r18
    1e7a:	b3 07       	cpc	r27, r19
    1e7c:	e4 07       	cpc	r30, r20
    1e7e:	f5 07       	cpc	r31, r21
    1e80:	20 f0       	brcs	.+8      	; 0x1e8a <__udivmodsi4_ep>
    1e82:	a2 1b       	sub	r26, r18
    1e84:	b3 0b       	sbc	r27, r19
    1e86:	e4 0b       	sbc	r30, r20
    1e88:	f5 0b       	sbc	r31, r21

00001e8a <__udivmodsi4_ep>:
    1e8a:	66 1f       	adc	r22, r22
    1e8c:	77 1f       	adc	r23, r23
    1e8e:	88 1f       	adc	r24, r24
    1e90:	99 1f       	adc	r25, r25
    1e92:	1a 94       	dec	r1
    1e94:	69 f7       	brne	.-38     	; 0x1e70 <__udivmodsi4_loop>
    1e96:	60 95       	com	r22
    1e98:	70 95       	com	r23
    1e9a:	80 95       	com	r24
    1e9c:	90 95       	com	r25
    1e9e:	9b 01       	movw	r18, r22
    1ea0:	ac 01       	movw	r20, r24
    1ea2:	bd 01       	movw	r22, r26
    1ea4:	cf 01       	movw	r24, r30
    1ea6:	08 95       	ret

00001ea8 <__umulhisi3>:
    1ea8:	a2 9f       	mul	r26, r18
    1eaa:	b0 01       	movw	r22, r0
    1eac:	b3 9f       	mul	r27, r19
    1eae:	c0 01       	movw	r24, r0
    1eb0:	a3 9f       	mul	r26, r19
    1eb2:	70 0d       	add	r23, r0
    1eb4:	81 1d       	adc	r24, r1
    1eb6:	11 24       	eor	r1, r1
    1eb8:	91 1d       	adc	r25, r1
    1eba:	b2 9f       	mul	r27, r18
    1ebc:	70 0d       	add	r23, r0
    1ebe:	81 1d       	adc	r24, r1
    1ec0:	11 24       	eor	r1, r1
    1ec2:	91 1d       	adc	r25, r1
    1ec4:	08 95       	ret

00001ec6 <memset>:
    1ec6:	dc 01       	movw	r26, r24
    1ec8:	01 c0       	rjmp	.+2      	; 0x1ecc <memset+0x6>
    1eca:	6d 93       	st	X+, r22
    1ecc:	41 50       	subi	r20, 0x01	; 1
    1ece:	50 40       	sbci	r21, 0x00	; 0
    1ed0:	e0 f7       	brcc	.-8      	; 0x1eca <memset+0x4>
    1ed2:	08 95       	ret

00001ed4 <_exit>:
    1ed4:	f8 94       	cli

00001ed6 <__stop_program>:
    1ed6:	ff cf       	rjmp	.-2      	; 0x1ed6 <__stop_program>
